	.section	__TEXT,__text,regular,pure_instructions
	.file	1 "/Users/ariggs/Documents/experiments/Cinder/FrickinWebcam/xcode/../src/FrickinWebcamApp.cpp"
	.file	2 "/applications/Xcode.app/Contents/Developer/Platforms/MacOSX.platform/Developer/SDKs/MacOSX10.8.sdk/usr/include/c++/4.2.1/bits/ios_base.h"
	.file	3 "/applications/Xcode.app/Contents/Developer/Platforms/MacOSX.platform/Developer/SDKs/MacOSX10.8.sdk/usr/include/c++/4.2.1/bits/postypes.h"
	.file	4 "/applications/Xcode.app/Contents/Developer/Platforms/MacOSX.platform/Developer/SDKs/MacOSX10.8.sdk/usr/include/c++/4.2.1/bits/locale_classes.h"
	.file	5 "/applications/Xcode.app/Contents/Developer/Platforms/MacOSX.platform/Developer/SDKs/MacOSX10.8.sdk/usr/include/c++/4.2.1/bits/basic_string.h"
	.file	6 "/applications/Xcode.app/Contents/Developer/Platforms/MacOSX.platform/Developer/SDKs/MacOSX10.8.sdk/usr/include/c++/4.2.1/bits/c++locale.h"
	.file	7 "/applications/Xcode.app/Contents/Developer/Platforms/MacOSX.platform/Developer/SDKs/MacOSX10.8.sdk/usr/include/c++/4.2.1/ext/new_allocator.h"
	.file	8 "/applications/Xcode.app/Contents/Developer/Platforms/MacOSX.platform/Developer/SDKs/MacOSX10.8.sdk/usr/include/c++/4.2.1/bits/allocator.h"
	.file	9 "/applications/Xcode.app/Contents/Developer/Platforms/MacOSX.platform/Developer/SDKs/MacOSX10.8.sdk/usr/include/c++/4.2.1/bits/stringfwd.h"
	.file	10 "/applications/Xcode.app/Contents/Developer/Platforms/MacOSX.platform/Developer/SDKs/MacOSX10.8.sdk/usr/include/c++/4.2.1/bits/stl_iterator.h"
	.file	11 "/applications/Xcode.app/Contents/Developer/Platforms/MacOSX.platform/Developer/SDKs/MacOSX10.8.sdk/usr/include/c++/4.2.1/bits/stl_iterator_base_types.h"
	.file	12 "/applications/Xcode.app/Contents/Developer/Platforms/MacOSX.platform/Developer/SDKs/MacOSX10.8.sdk/usr/include/c++/4.2.1/bits/basic_string.tcc"
	.file	13 "/applications/Xcode.app/Contents/Developer/Platforms/MacOSX.platform/Developer/SDKs/MacOSX10.8.sdk/usr/include/c++/4.2.1/bits/char_traits.h"
	.file	14 "/applications/Xcode.app/Contents/Developer/Platforms/MacOSX.platform/Developer/SDKs/MacOSX10.8.sdk/usr/include/c++/4.2.1/iostream"
	.file	15 "../../cinder_0.8.4_mac/boost/boost/noncopyable.hpp"
	.file	16 "../../cinder_0.8.4_mac/boost/boost/system/error_code.hpp"
	.file	17 "/applications/Xcode.app/Contents/Developer/Platforms/MacOSX.platform/Developer/SDKs/MacOSX10.8.sdk/usr/include/c++/4.2.1/tr1/tuple"
	.file	18 "/applications/Xcode.app/Contents/Developer/Platforms/MacOSX.platform/Developer/SDKs/MacOSX10.8.sdk/usr/include/c++/4.2.1/tr1/functional"
	.file	19 "/applications/Xcode.app/Contents/Developer/Platforms/MacOSX.platform/Developer/SDKs/MacOSX10.8.sdk/usr/include/c++/4.2.1/tr1/functional_iterate.h"
	.file	20 "../../cinder_0.8.4_mac/include/cinder/Vector.h"
	.file	21 "/applications/Xcode.app/Contents/Developer/Platforms/MacOSX.platform/Developer/SDKs/MacOSX10.8.sdk/usr/include/c++/4.2.1/typeinfo"
	.file	22 "../../cinder_0.8.4_mac/boost/boost/mpl/bool.hpp"
	.file	23 "../../cinder_0.8.4_mac/boost/boost/mpl/bool_fwd.hpp"
	.file	24 "../../cinder_0.8.4_mac/include/cinder/Stream.h"
	.file	25 "../../cinder_0.8.4_mac/boost/boost/filesystem/v3/path.hpp"
	.file	26 "/applications/Xcode.app/Contents/Developer/Platforms/MacOSX.platform/Developer/SDKs/MacOSX10.8.sdk/usr/include/c++/4.2.1/bits/codecvt.h"
	.file	27 "/applications/Xcode.app/Contents/Developer/Platforms/MacOSX.platform/Developer/SDKs/MacOSX10.8.sdk/usr/include/i386/_types.h"
	.file	28 "../../cinder_0.8.4_mac/boost/boost/iterator/iterator_facade.hpp"
	.file	29 "../../cinder_0.8.4_mac/boost/boost/mpl/if.hpp"
	.file	30 "../../cinder_0.8.4_mac/boost/boost/mpl/aux_/preprocessed/gcc/bind.hpp"
	.file	31 "../../cinder_0.8.4_mac/boost/boost/type_traits/integral_constant.hpp"
	.file	32 "../../cinder_0.8.4_mac/boost/boost/type_traits/is_reference.hpp"
	.file	33 "../../cinder_0.8.4_mac/boost/boost/mpl/not.hpp"
	.file	34 "../../cinder_0.8.4_mac/boost/boost/mpl/aux_/preprocessed/gcc/and.hpp"
	.file	35 "../../cinder_0.8.4_mac/boost/boost/mpl/aux_/preprocessed/gcc/or.hpp"
	.file	36 "../../cinder_0.8.4_mac/boost/boost/type_traits/is_const.hpp"
	.file	37 "../../cinder_0.8.4_mac/boost/boost/detail/indirect_traits.hpp"
	.file	38 "../../cinder_0.8.4_mac/boost/boost/iterator/detail/facade_iterator_category.hpp"
	.file	39 "../../cinder_0.8.4_mac/boost/boost/type_traits/is_pod.hpp"
	.file	40 "../../cinder_0.8.4_mac/boost/boost/iterator/iterator_categories.hpp"
	.file	41 "../../cinder_0.8.4_mac/include/cinder/Surface.h"
	.file	42 "/applications/Xcode.app/Contents/Developer/Platforms/MacOSX.platform/Developer/SDKs/MacOSX10.8.sdk/usr/include/c++/4.2.1/bits/ctype_base.h"
	.file	43 "/applications/Xcode.app/Contents/Developer/Platforms/MacOSX.platform/Developer/SDKs/MacOSX10.8.sdk/usr/include/c++/4.2.1/bits/locale_facets.h"
	.file	44 "/applications/Xcode.app/Contents/Developer/Platforms/MacOSX.platform/Developer/SDKs/MacOSX10.8.sdk/usr/include/c++/4.2.1/exception"
	.file	45 "/applications/Xcode.app/Contents/Developer/Platforms/MacOSX.platform/Developer/SDKs/MacOSX10.8.sdk/usr/include/c++/4.2.1/stdexcept"
	.file	46 "../../cinder_0.8.4_mac/boost/boost/system/system_error.hpp"
	.file	47 "../../cinder_0.8.4_mac/include/cinder/Timer.h"
	.file	48 "../../cinder_0.8.4_mac/include/cinder/app/App.h"
	.file	49 "/applications/Xcode.app/Contents/Developer/Platforms/MacOSX.platform/Developer/SDKs/MacOSX10.8.sdk/usr/include/c++/4.2.1/tr1/boost_shared_ptr.h"
	.file	50 "/applications/Xcode.app/Contents/Developer/Platforms/MacOSX.platform/Developer/SDKs/MacOSX10.8.sdk/usr/include/c++/4.2.1/ext/concurrence.h"
	.file	51 "/applications/Xcode.app/Contents/Developer/Platforms/MacOSX.platform/Developer/SDKs/MacOSX10.8.sdk/usr/include/c++/4.2.1/tr1/type_traits"
	.file	52 "../../cinder_0.8.4_mac/include/cinder/app/Renderer.h"
	.file	53 "/applications/Xcode.app/Contents/Developer/Platforms/MacOSX.platform/Developer/SDKs/MacOSX10.8.sdk/System/Library/Frameworks/CoreGraphics.framework/Headers/CGGeometry.h"
	.file	54 "../../cinder_0.8.4_mac/include/cinder/Channel.h"
	.file	55 "../../cinder_0.8.4_mac/boost/boost/logic/tribool.hpp"
	.file	56 "../../cinder_0.8.4_mac/include/cinder/Area.h"
	.file	57 "../../cinder_0.8.4_mac/include/cinder/Rect.h"
	.file	58 "/applications/Xcode.app/Contents/Developer/Platforms/MacOSX.platform/Developer/SDKs/MacOSX10.8.sdk/usr/include/c++/4.2.1/bits/stl_construct.h"
	.file	59 "/applications/Xcode.app/Contents/Developer/Platforms/MacOSX.platform/Developer/SDKs/MacOSX10.8.sdk/usr/include/c++/4.2.1/bits/stl_vector.h"
	.file	60 "../../cinder_0.8.4_mac/include/cinder/MatrixAffine2.h"
	.file	61 "../../cinder_0.8.4_mac/include/cinder/Color.h"
	.file	62 "../../cinder_0.8.4_mac/include/cinder/ChanTraits.h"
	.file	63 "/applications/Xcode.app/Contents/Developer/Platforms/MacOSX.platform/Developer/SDKs/MacOSX10.8.sdk/usr/include/c++/4.2.1/bits/stl_pair.h"
	.file	64 "../../cinder_0.8.4_mac/include/cinder/Function.h"
	.file	65 "/applications/Xcode.app/Contents/Developer/Platforms/MacOSX.platform/Developer/SDKs/MacOSX10.8.sdk/usr/include/c++/4.2.1/bits/stl_function.h"
	.file	66 "../../cinder_0.8.4_mac/include/cinder/app/Event.h"
	.file	67 "../../cinder_0.8.4_mac/include/cinder/app/MouseEvent.h"
	.file	68 "/applications/Xcode.app/Contents/Developer/Platforms/MacOSX.platform/Developer/SDKs/MacOSX10.8.sdk/usr/include/c++/4.2.1/ext/type_traits.h"
	.file	69 "../../cinder_0.8.4_mac/include/cinder/app/KeyEvent.h"
	.file	70 "../../cinder_0.8.4_mac/include/cinder/app/ResizeEvent.h"
	.file	71 "../../cinder_0.8.4_mac/include/cinder/app/FileDropEvent.h"
	.file	72 "../../cinder_0.8.4_mac/include/cinder/Buffer.h"
	.file	73 "../../cinder_0.8.4_mac/include/cinder/DataSource.h"
	.file	74 "../../cinder_0.8.4_mac/include/cinder/Url.h"
	.file	75 "/applications/Xcode.app/Contents/Developer/Platforms/MacOSX.platform/Developer/SDKs/MacOSX10.8.sdk/usr/include/c++/4.2.1/bits/basic_ios.h"
	.file	76 "/applications/Xcode.app/Contents/Developer/Platforms/MacOSX.platform/Developer/SDKs/MacOSX10.8.sdk/usr/include/c++/4.2.1/bits/basic_ios.tcc"
	.file	77 "/applications/Xcode.app/Contents/Developer/Platforms/MacOSX.platform/Developer/SDKs/MacOSX10.8.sdk/usr/include/c++/4.2.1/bits/streambuf.tcc"
	.file	78 "/applications/Xcode.app/Contents/Developer/Platforms/MacOSX.platform/Developer/SDKs/MacOSX10.8.sdk/usr/include/c++/4.2.1/streambuf"
	.file	79 "/applications/Xcode.app/Contents/Developer/Platforms/MacOSX.platform/Developer/SDKs/MacOSX10.8.sdk/usr/include/c++/4.2.1/iosfwd"
	.file	80 "/applications/Xcode.app/Contents/Developer/Platforms/MacOSX.platform/Developer/SDKs/MacOSX10.8.sdk/usr/include/c++/4.2.1/istream"
	.file	81 "/applications/Xcode.app/Contents/Developer/Platforms/MacOSX.platform/Developer/SDKs/MacOSX10.8.sdk/usr/include/c++/4.2.1/bits/istream.tcc"
	.file	82 "/applications/Xcode.app/Contents/Developer/Platforms/MacOSX.platform/Developer/SDKs/MacOSX10.8.sdk/usr/include/c++/4.2.1/bits/locale_facets.tcc"
	.file	83 "/applications/Xcode.app/Contents/Developer/Platforms/MacOSX.platform/Developer/SDKs/MacOSX10.8.sdk/usr/include/c++/4.2.1/ostream"
	.file	84 "/applications/Xcode.app/Contents/Developer/Platforms/MacOSX.platform/Developer/SDKs/MacOSX10.8.sdk/usr/include/c++/4.2.1/bits/ostream.tcc"
	.file	85 "../../cinder_0.8.4_mac/include/cinder/app/TouchEvent.h"
	.file	86 "../../cinder_0.8.4_mac/include/cinder/app/AppBasic.h"
	.file	87 "../../cinder_0.8.4_mac/include/cinder/Display.h"
	.section	__TEXT,__text,regular,pure_instructions
Ltext_begin:
	.section	__DATA,__data
	.section	__TEXT,__StaticInit,regular,pure_instructions
	.align	4, 0x90
___cxx_global_var_init:                 ## @__cxx_global_var_init
	.cfi_startproc
## BB#0:
	pushl	%ebp
Ltmp3:
	.cfi_def_cfa_offset 8
Ltmp4:
	.cfi_offset %ebp, -8
	movl	%esp, %ebp
Ltmp5:
	.cfi_def_cfa_register %ebp
	pushl	%esi
	subl	$20, %esp
Ltmp6:
	.cfi_offset %esi, -12
	calll	L0$pb
L0$pb:
	popl	%eax
	leal	__ZStL8__ioinit-L0$pb(%eax), %ecx
	movl	%ecx, (%esp)
	movl	%eax, -8(%ebp)          ## 4-byte Spill
	calll	__ZNSt8ios_base4InitC1Ev
	movl	-8(%ebp), %eax          ## 4-byte Reload
	movl	L__ZNSt8ios_base4InitD1Ev$non_lazy_ptr-L0$pb(%eax), %ecx
	leal	__ZStL8__ioinit-L0$pb(%eax), %edx
	movl	L___dso_handle$non_lazy_ptr-L0$pb(%eax), %esi
	movl	%ecx, (%esp)
	movl	%edx, 4(%esp)
	movl	%esi, 8(%esp)
	calll	___cxa_atexit
	movl	%eax, -12(%ebp)         ## 4-byte Spill
	addl	$20, %esp
	popl	%esi
	popl	%ebp
	ret
	.cfi_endproc

	.align	4, 0x90
___cxx_global_var_init1:                ## @__cxx_global_var_init1
	.cfi_startproc
## BB#0:
	pushl	%ebp
Ltmp9:
	.cfi_def_cfa_offset 8
Ltmp10:
	.cfi_offset %ebp, -8
	movl	%esp, %ebp
Ltmp11:
	.cfi_def_cfa_register %ebp
	subl	$8, %esp
	calll	L1$pb
L1$pb:
	popl	%eax
	movl	%eax, -4(%ebp)          ## 4-byte Spill
	calll	__ZN5boost6system16generic_categoryEv
	movl	-4(%ebp), %ecx          ## 4-byte Reload
	movl	%eax, __ZN5boost6systemL14posix_categoryE-L1$pb(%ecx)
	addl	$8, %esp
	popl	%ebp
	ret
	.cfi_endproc

	.align	4, 0x90
___cxx_global_var_init2:                ## @__cxx_global_var_init2
	.cfi_startproc
## BB#0:
	pushl	%ebp
Ltmp14:
	.cfi_def_cfa_offset 8
Ltmp15:
	.cfi_offset %ebp, -8
	movl	%esp, %ebp
Ltmp16:
	.cfi_def_cfa_register %ebp
	subl	$8, %esp
	calll	L2$pb
L2$pb:
	popl	%eax
	movl	%eax, -4(%ebp)          ## 4-byte Spill
	calll	__ZN5boost6system16generic_categoryEv
	movl	-4(%ebp), %ecx          ## 4-byte Reload
	movl	%eax, __ZN5boost6systemL10errno_ecatE-L2$pb(%ecx)
	addl	$8, %esp
	popl	%ebp
	ret
	.cfi_endproc

	.align	4, 0x90
___cxx_global_var_init3:                ## @__cxx_global_var_init3
	.cfi_startproc
## BB#0:
	pushl	%ebp
Ltmp19:
	.cfi_def_cfa_offset 8
Ltmp20:
	.cfi_offset %ebp, -8
	movl	%esp, %ebp
Ltmp21:
	.cfi_def_cfa_register %ebp
	subl	$8, %esp
	calll	L3$pb
L3$pb:
	popl	%eax
	movl	%eax, -4(%ebp)          ## 4-byte Spill
	calll	__ZN5boost6system15system_categoryEv
	movl	-4(%ebp), %ecx          ## 4-byte Reload
	movl	%eax, __ZN5boost6systemL11native_ecatE-L3$pb(%ecx)
	addl	$8, %esp
	popl	%ebp
	ret
	.cfi_endproc

	.section	__TEXT,__textcoal_nt,coalesced,pure_instructions
	.globl	__ZNK5boost6system14error_category23default_error_conditionEi
	.weak_definition	__ZNK5boost6system14error_category23default_error_conditionEi
	.align	4, 0x90
__ZNK5boost6system14error_category23default_error_conditionEi: ## @_ZNK5boost6system14error_category23default_error_conditionEi
	.cfi_startproc
Lfunc_begin4:
	.loc	16 486 0                ## ../../cinder_0.8.4_mac/boost/boost/system/error_code.hpp:486:0
## BB#0:
	pushl	%ebp
Ltmp24:
	.cfi_def_cfa_offset 8
Ltmp25:
	.cfi_offset %ebp, -8
	movl	%esp, %ebp
Ltmp26:
	.cfi_def_cfa_register %ebp
	subl	$40, %esp
	movl	12(%ebp), %eax
	movl	8(%ebp), %ecx
	##DEBUG_VALUE: default_error_condition:this <- undef
	##DEBUG_VALUE: default_error_condition:ev <- undef
	movl	%ecx, -12(%ebp)
	movl	%eax, -16(%ebp)
	movl	-12(%ebp), %ecx
	.loc	16 487 7 prologue_end   ## ../../cinder_0.8.4_mac/boost/boost/system/error_code.hpp:487:7
Ltmp27:
	movl	%esp, %edx
	movl	%ecx, 8(%edx)
	movl	%eax, 4(%edx)
	leal	-8(%ebp), %eax
	movl	%eax, (%edx)
	calll	__ZN5boost6system15error_conditionC1EiRKNS0_14error_categoryE
	movl	-8(%ebp), %eax
	movl	-4(%ebp), %edx
	addl	$40, %esp
	popl	%ebp
	ret
Ltmp28:
Lfunc_end4:
	.cfi_endproc

	.globl	__ZN5boost6system15error_conditionC1EiRKNS0_14error_categoryE
	.weak_definition	__ZN5boost6system15error_conditionC1EiRKNS0_14error_categoryE
	.align	4, 0x90
__ZN5boost6system15error_conditionC1EiRKNS0_14error_categoryE: ## @_ZN5boost6system15error_conditionC1EiRKNS0_14error_categoryE
	.cfi_startproc
Lfunc_begin5:
	.loc	16 229 0                ## ../../cinder_0.8.4_mac/boost/boost/system/error_code.hpp:229:0
## BB#0:
	pushl	%ebp
Ltmp31:
	.cfi_def_cfa_offset 8
Ltmp32:
	.cfi_offset %ebp, -8
	movl	%esp, %ebp
Ltmp33:
	.cfi_def_cfa_register %ebp
	subl	$24, %esp
	movl	16(%ebp), %eax
	movl	12(%ebp), %ecx
	movl	8(%ebp), %edx
	movl	%edx, -4(%ebp)
	movl	%ecx, -8(%ebp)
	movl	%eax, -12(%ebp)
	movl	-4(%ebp), %eax
	.loc	16 229 89 prologue_end  ## ../../cinder_0.8.4_mac/boost/boost/system/error_code.hpp:229:89
Ltmp34:
	movl	-8(%ebp), %ecx
	movl	-12(%ebp), %edx
	movl	%eax, (%esp)
	movl	%ecx, 4(%esp)
	movl	%edx, 8(%esp)
	calll	__ZN5boost6system15error_conditionC2EiRKNS0_14error_categoryE
	addl	$24, %esp
	popl	%ebp
	ret
Ltmp35:
Lfunc_end5:
	.cfi_endproc

	.globl	__ZNK5boost6system12system_error4whatEv
	.weak_definition	__ZNK5boost6system12system_error4whatEv
	.align	4, 0x90
__ZNK5boost6system12system_error4whatEv: ## @_ZNK5boost6system12system_error4whatEv
	.cfi_startproc
	.cfi_personality 155, L___gxx_personality_v0$non_lazy_ptr
Leh_func_begin6:
	.cfi_lsda 16, Lexception6
Lfunc_begin6:
	.loc	46 61 0                 ## ../../cinder_0.8.4_mac/boost/boost/system/system_error.hpp:61:0
## BB#0:
	pushl	%ebp
Ltmp63:
	.cfi_def_cfa_offset 8
Ltmp64:
	.cfi_offset %ebp, -8
	movl	%esp, %ebp
Ltmp65:
	.cfi_def_cfa_register %ebp
	pushl	%esi
	subl	$84, %esp
Ltmp66:
	.cfi_offset %esi, -12
	calll	L6$pb
L6$pb:
	popl	%eax
	movl	8(%ebp), %ecx
	##DEBUG_VALUE: what:this <- undef
	movl	%ecx, -12(%ebp)
	.loc	46 62 12 prologue_end   ## ../../cinder_0.8.4_mac/boost/boost/system/system_error.hpp:62:12
Ltmp67:
	movl	%ecx, %edx
	addl	$16, %edx
Ltmp36:
	movl	%esp, %esi
	movl	%edx, (%esi)
	movl	%eax, -32(%ebp)         ## 4-byte Spill
	movl	%ecx, -36(%ebp)         ## 4-byte Spill
	calll	__ZNKSs5emptyEv
Ltmp37:
	movb	%al, -37(%ebp)          ## 1-byte Spill
	jmp	LBB6_1
LBB6_1:
	movb	-37(%ebp), %al          ## 1-byte Reload
	testb	$1, %al
	jne	LBB6_2
	jmp	LBB6_19
LBB6_2:
	.loc	46 66 11                ## ../../cinder_0.8.4_mac/boost/boost/system/system_error.hpp:66:11
Ltmp68:
	movl	-36(%ebp), %eax         ## 4-byte Reload
	addl	$16, %eax
	.loc	46 66 20                ## ../../cinder_0.8.4_mac/boost/boost/system/system_error.hpp:66:20
	movl	%esp, %ecx
	movl	-36(%ebp), %edx         ## 4-byte Reload
	movl	%edx, (%ecx)
	movl	%eax, -44(%ebp)         ## 4-byte Spill
	calll	__ZNKSt13runtime_error4whatEv
Ltmp38:
	movl	%esp, %ecx
	movl	%eax, 4(%ecx)
	movl	-44(%ebp), %eax         ## 4-byte Reload
	movl	%eax, (%ecx)
	calll	__ZNSsaSEPKc
Ltmp39:
	movl	%eax, -48(%ebp)         ## 4-byte Spill
	jmp	LBB6_3
LBB6_3:
	.loc	46 67 17                ## ../../cinder_0.8.4_mac/boost/boost/system/system_error.hpp:67:17
	movl	-36(%ebp), %eax         ## 4-byte Reload
	addl	$16, %eax
Ltmp40:
	movl	%esp, %ecx
	movl	%eax, (%ecx)
	calll	__ZNKSs5emptyEv
Ltmp41:
	movb	%al, -49(%ebp)          ## 1-byte Spill
	jmp	LBB6_4
LBB6_4:
	movb	-49(%ebp), %al          ## 1-byte Reload
	testb	$1, %al
	jne	LBB6_10
## BB#5:
	.loc	46 67 34                ## ../../cinder_0.8.4_mac/boost/boost/system/system_error.hpp:67:34
	movl	-36(%ebp), %eax         ## 4-byte Reload
	addl	$16, %eax
Ltmp42:
	movl	%esp, %ecx
	movl	-32(%ebp), %edx         ## 4-byte Reload
	leal	L_.str-L6$pb(%edx), %esi
	movl	%esi, 4(%ecx)
	movl	%eax, (%ecx)
	calll	__ZNSspLEPKc
Ltmp43:
	movl	%eax, -56(%ebp)         ## 4-byte Spill
	jmp	LBB6_6
LBB6_6:
	jmp	LBB6_10
Ltmp69:
LBB6_7:
Ltmp59:
	.loc	46 62 12                ## ../../cinder_0.8.4_mac/boost/boost/system/system_error.hpp:62:12
	movl	%eax, -16(%ebp)
	movl	%edx, -20(%ebp)
## BB#8:
	.loc	46 73 5                 ## ../../cinder_0.8.4_mac/boost/boost/system/system_error.hpp:73:5
	movl	-16(%ebp), %eax
	movl	%eax, (%esp)
	calll	___cxa_call_unexpected
LBB6_9:
Ltmp54:
	.loc	46 66 20                ## ../../cinder_0.8.4_mac/boost/boost/system/system_error.hpp:66:20
Ltmp70:
	movl	%eax, -16(%ebp)
	movl	%edx, -20(%ebp)
	jmp	LBB6_16
LBB6_10:
	.loc	46 68 11                ## ../../cinder_0.8.4_mac/boost/boost/system/system_error.hpp:68:11
	movl	-36(%ebp), %eax         ## 4-byte Reload
	addl	$16, %eax
	.loc	46 68 21                ## ../../cinder_0.8.4_mac/boost/boost/system/system_error.hpp:68:21
	movl	-36(%ebp), %ecx         ## 4-byte Reload
	addl	$8, %ecx
Ltmp44:
	movl	%esp, %edx
	movl	%ecx, 4(%edx)
	leal	-24(%ebp), %ecx
	movl	%ecx, (%edx)
	movl	%eax, -60(%ebp)         ## 4-byte Spill
	calll	__ZNK5boost6system10error_code7messageEv
	subl	$4, %esp
Ltmp45:
	jmp	LBB6_11
LBB6_11:
Ltmp46:
	leal	-24(%ebp), %eax
	movl	%esp, %ecx
	movl	%eax, 4(%ecx)
	movl	-60(%ebp), %eax         ## 4-byte Reload
	movl	%eax, (%ecx)
	calll	__ZNSspLERKSs
Ltmp47:
	movl	%eax, -64(%ebp)         ## 4-byte Spill
	jmp	LBB6_12
LBB6_12:
Ltmp52:
	leal	-24(%ebp), %eax
	movl	%esp, %ecx
	movl	%eax, (%ecx)
	calll	__ZNSsD1Ev
Ltmp53:
	jmp	LBB6_13
LBB6_13:
	.loc	46 69 9                 ## ../../cinder_0.8.4_mac/boost/boost/system/system_error.hpp:69:9
	jmp	LBB6_18
LBB6_14:
Ltmp48:
	.loc	46 68 21                ## ../../cinder_0.8.4_mac/boost/boost/system/system_error.hpp:68:21
	movl	%eax, -16(%ebp)
	movl	%edx, -20(%ebp)
Ltmp49:
	leal	-24(%ebp), %eax
	movl	%esp, %edx
	movl	%eax, (%edx)
	calll	__ZNSsD1Ev
Ltmp50:
	jmp	LBB6_15
LBB6_15:
LBB6_16:
	.loc	46 69 9                 ## ../../cinder_0.8.4_mac/boost/boost/system/system_error.hpp:69:9
	movl	-16(%ebp), %eax
	movl	%esp, %ecx
	movl	%eax, (%ecx)
	calll	___cxa_begin_catch
Ltmp71:
	.loc	46 70 30                ## ../../cinder_0.8.4_mac/boost/boost/system/system_error.hpp:70:30
	movl	%esp, %ecx
	movl	-36(%ebp), %edx         ## 4-byte Reload
	movl	%edx, (%ecx)
	movl	%eax, -68(%ebp)         ## 4-byte Spill
	calll	__ZNKSt13runtime_error4whatEv
	movl	%eax, -8(%ebp)
	movl	$1, -28(%ebp)
	.loc	46 70 58                ## ../../cinder_0.8.4_mac/boost/boost/system/system_error.hpp:70:58
Ltmp55:
	calll	___cxa_end_catch
Ltmp56:
	jmp	LBB6_17
Ltmp72:
LBB6_17:
	jmp	LBB6_21
LBB6_18:
LBB6_19:
	.loc	46 72 14                ## ../../cinder_0.8.4_mac/boost/boost/system/system_error.hpp:72:14
	movl	-36(%ebp), %eax         ## 4-byte Reload
	addl	$16, %eax
Ltmp57:
	movl	%esp, %ecx
	movl	%eax, (%ecx)
	calll	__ZNKSs5c_strEv
Ltmp58:
	movl	%eax, -72(%ebp)         ## 4-byte Spill
	jmp	LBB6_20
LBB6_20:
	movl	-72(%ebp), %eax         ## 4-byte Reload
	movl	%eax, -8(%ebp)
LBB6_21:
	.loc	46 73 5                 ## ../../cinder_0.8.4_mac/boost/boost/system/system_error.hpp:73:5
	movl	-8(%ebp), %eax
	addl	$84, %esp
	popl	%esi
	popl	%ebp
	ret
LBB6_22:
Ltmp51:
	.loc	46 68 21                ## ../../cinder_0.8.4_mac/boost/boost/system/system_error.hpp:68:21
Ltmp73:
	movl	%eax, -76(%ebp)         ## 4-byte Spill
	movl	%edx, -80(%ebp)         ## 4-byte Spill
	calll	__ZSt9terminatev
Ltmp74:
Lfunc_end6:
	.cfi_endproc
Leh_func_end6:
	.section	__TEXT,__gcc_except_tab
	.align	2
GCC_except_table6:
Lexception6:
	.byte	255                     ## @LPStart Encoding = omit
	.byte	155                     ## @TType Encoding = indirect pcrel sdata4
	.asciz	 "\215\201\200\200"     ## @TType base offset
	.byte	3                       ## Call site Encoding = udata4
	.ascii	 "\202\001"             ## Call site table length
Lset0 = Ltmp36-Leh_func_begin6          ## >> Call Site 1 <<
	.long	Lset0
Lset1 = Ltmp37-Ltmp36                   ##   Call between Ltmp36 and Ltmp37
	.long	Lset1
Lset2 = Ltmp59-Leh_func_begin6          ##     jumps to Ltmp59
	.long	Lset2
	.byte	1                       ##   On action: 1
Lset3 = Ltmp38-Leh_func_begin6          ## >> Call Site 2 <<
	.long	Lset3
Lset4 = Ltmp43-Ltmp38                   ##   Call between Ltmp38 and Ltmp43
	.long	Lset4
Lset5 = Ltmp54-Leh_func_begin6          ##     jumps to Ltmp54
	.long	Lset5
	.byte	3                       ##   On action: 2
Lset6 = Ltmp43-Leh_func_begin6          ## >> Call Site 3 <<
	.long	Lset6
Lset7 = Ltmp44-Ltmp43                   ##   Call between Ltmp43 and Ltmp44
	.long	Lset7
	.long	0                       ##     has no landing pad
	.byte	0                       ##   On action: cleanup
Lset8 = Ltmp44-Leh_func_begin6          ## >> Call Site 4 <<
	.long	Lset8
Lset9 = Ltmp45-Ltmp44                   ##   Call between Ltmp44 and Ltmp45
	.long	Lset9
Lset10 = Ltmp54-Leh_func_begin6         ##     jumps to Ltmp54
	.long	Lset10
	.byte	3                       ##   On action: 2
Lset11 = Ltmp46-Leh_func_begin6         ## >> Call Site 5 <<
	.long	Lset11
Lset12 = Ltmp47-Ltmp46                  ##   Call between Ltmp46 and Ltmp47
	.long	Lset12
Lset13 = Ltmp48-Leh_func_begin6         ##     jumps to Ltmp48
	.long	Lset13
	.byte	3                       ##   On action: 2
Lset14 = Ltmp52-Leh_func_begin6         ## >> Call Site 6 <<
	.long	Lset14
Lset15 = Ltmp53-Ltmp52                  ##   Call between Ltmp52 and Ltmp53
	.long	Lset15
Lset16 = Ltmp54-Leh_func_begin6         ##     jumps to Ltmp54
	.long	Lset16
	.byte	3                       ##   On action: 2
Lset17 = Ltmp49-Leh_func_begin6         ## >> Call Site 7 <<
	.long	Lset17
Lset18 = Ltmp50-Ltmp49                  ##   Call between Ltmp49 and Ltmp50
	.long	Lset18
Lset19 = Ltmp51-Leh_func_begin6         ##     jumps to Ltmp51
	.long	Lset19
	.byte	3                       ##   On action: 2
Lset20 = Ltmp50-Leh_func_begin6         ## >> Call Site 8 <<
	.long	Lset20
Lset21 = Ltmp55-Ltmp50                  ##   Call between Ltmp50 and Ltmp55
	.long	Lset21
	.long	0                       ##     has no landing pad
	.byte	0                       ##   On action: cleanup
Lset22 = Ltmp55-Leh_func_begin6         ## >> Call Site 9 <<
	.long	Lset22
Lset23 = Ltmp58-Ltmp55                  ##   Call between Ltmp55 and Ltmp58
	.long	Lset23
Lset24 = Ltmp59-Leh_func_begin6         ##     jumps to Ltmp59
	.long	Lset24
	.byte	1                       ##   On action: 1
Lset25 = Ltmp58-Leh_func_begin6         ## >> Call Site 10 <<
	.long	Lset25
Lset26 = Leh_func_end6-Ltmp58           ##   Call between Ltmp58 and Leh_func_end6
	.long	Lset26
	.long	0                       ##     has no landing pad
	.byte	0                       ##   On action: cleanup
	.byte	127                     ## >> Action Record 1 <<
                                        ##   Filter TypeInfo -1
	.byte	0                       ##   No further actions
	.byte	1                       ## >> Action Record 2 <<
                                        ##   Catch TypeInfo 1
	.byte	0                       ##   No further actions
                                        ## >> Catch TypeInfos <<
	.long	0                       ## TypeInfo 1
                                        ## >> Filter TypeInfos <<
	.byte	0
	.align	2

	.section	__TEXT,__textcoal_nt,coalesced,pure_instructions
	.globl	__ZNK5boost6system10error_code7messageEv
	.weak_definition	__ZNK5boost6system10error_code7messageEv
	.align	4, 0x90
__ZNK5boost6system10error_code7messageEv: ## @_ZNK5boost6system10error_code7messageEv
	.cfi_startproc
Lfunc_begin7:
	.loc	16 350 0                ## ../../cinder_0.8.4_mac/boost/boost/system/error_code.hpp:350:0
## BB#0:
	pushl	%ebp
Ltmp78:
	.cfi_def_cfa_offset 8
Ltmp79:
	.cfi_offset %ebp, -8
	movl	%esp, %ebp
Ltmp80:
	.cfi_def_cfa_register %ebp
	pushl	%edi
	pushl	%esi
	subl	$32, %esp
Ltmp81:
	.cfi_offset %esi, -16
Ltmp82:
	.cfi_offset %edi, -12
	movl	12(%ebp), %eax
	movl	8(%ebp), %ecx
	##DEBUG_VALUE: message:this <- undef
	movl	%eax, -12(%ebp)
	.loc	16 350 57 prologue_end  ## ../../cinder_0.8.4_mac/boost/boost/system/error_code.hpp:350:57
Ltmp83:
	movl	4(%eax), %edx
	movl	(%edx), %esi
	movl	12(%esi), %esi
	.loc	16 350 72               ## ../../cinder_0.8.4_mac/boost/boost/system/error_code.hpp:350:72
	movl	%esp, %edi
	movl	%eax, (%edi)
	movl	%esi, -16(%ebp)         ## 4-byte Spill
	movl	%ecx, -20(%ebp)         ## 4-byte Spill
	movl	%edx, -24(%ebp)         ## 4-byte Spill
	calll	__ZNK5boost6system10error_code5valueEv
	movl	%esp, %ecx
	movl	%eax, 8(%ecx)
	movl	-24(%ebp), %eax         ## 4-byte Reload
	movl	%eax, 4(%ecx)
	movl	-20(%ebp), %edx         ## 4-byte Reload
	movl	%edx, (%ecx)
	movl	-16(%ebp), %ecx         ## 4-byte Reload
	calll	*%ecx
	addl	$28, %esp
	popl	%esi
	popl	%edi
	popl	%ebp
	ret	$4
Ltmp84:
Lfunc_end7:
	.cfi_endproc

	.section	__TEXT,__text,regular,pure_instructions
	.globl	__ZN16FrickinWebcamApp5setupEv
	.align	4, 0x90
__ZN16FrickinWebcamApp5setupEv:         ## @_ZN16FrickinWebcamApp5setupEv
	.cfi_startproc
Lfunc_begin8:
	.loc	1 17 0                  ## /Users/ariggs/Documents/experiments/Cinder/FrickinWebcam/xcode/../src/FrickinWebcamApp.cpp:17:0
## BB#0:
	pushl	%ebp
Ltmp87:
	.cfi_def_cfa_offset 8
Ltmp88:
	.cfi_offset %ebp, -8
	movl	%esp, %ebp
Ltmp89:
	.cfi_def_cfa_register %ebp
	pushl	%eax
	movl	8(%ebp), %eax
	movl	%eax, -4(%ebp)
	.loc	1 18 1 prologue_end     ## /Users/ariggs/Documents/experiments/Cinder/FrickinWebcam/xcode/../src/FrickinWebcamApp.cpp:18:1
Ltmp90:
	addl	$4, %esp
	popl	%ebp
	ret
Ltmp91:
Lfunc_end8:
	.cfi_endproc

	.globl	__ZN16FrickinWebcamApp9mouseDownEN6cinder3app10MouseEventE
	.align	4, 0x90
__ZN16FrickinWebcamApp9mouseDownEN6cinder3app10MouseEventE: ## @_ZN16FrickinWebcamApp9mouseDownEN6cinder3app10MouseEventE
	.cfi_startproc
Lfunc_begin9:
	.loc	1 21 0                  ## /Users/ariggs/Documents/experiments/Cinder/FrickinWebcam/xcode/../src/FrickinWebcamApp.cpp:21:0
## BB#0:
	pushl	%ebp
Ltmp94:
	.cfi_def_cfa_offset 8
Ltmp95:
	.cfi_offset %ebp, -8
	movl	%esp, %ebp
Ltmp96:
	.cfi_def_cfa_register %ebp
	pushl	%eax
	movl	8(%ebp), %eax
	movl	%eax, -4(%ebp)
	.loc	1 22 1 prologue_end     ## /Users/ariggs/Documents/experiments/Cinder/FrickinWebcam/xcode/../src/FrickinWebcamApp.cpp:22:1
Ltmp97:
	addl	$4, %esp
	popl	%ebp
	ret
Ltmp98:
Lfunc_end9:
	.cfi_endproc

	.globl	__ZN16FrickinWebcamApp6updateEv
	.align	4, 0x90
__ZN16FrickinWebcamApp6updateEv:        ## @_ZN16FrickinWebcamApp6updateEv
	.cfi_startproc
Lfunc_begin10:
	.loc	1 25 0                  ## /Users/ariggs/Documents/experiments/Cinder/FrickinWebcam/xcode/../src/FrickinWebcamApp.cpp:25:0
## BB#0:
	pushl	%ebp
Ltmp101:
	.cfi_def_cfa_offset 8
Ltmp102:
	.cfi_offset %ebp, -8
	movl	%esp, %ebp
Ltmp103:
	.cfi_def_cfa_register %ebp
	pushl	%eax
	movl	8(%ebp), %eax
	movl	%eax, -4(%ebp)
	.loc	1 26 1 prologue_end     ## /Users/ariggs/Documents/experiments/Cinder/FrickinWebcam/xcode/../src/FrickinWebcamApp.cpp:26:1
Ltmp104:
	addl	$4, %esp
	popl	%ebp
	ret
Ltmp105:
Lfunc_end10:
	.cfi_endproc

	.section	__TEXT,__literal4,4byte_literals
	.align	2
LCPI11_0:
	.long	1056964608              ## float 5.000000e-01
LCPI11_1:
	.long	1058642330              ## float 6.000000e-01
	.section	__TEXT,__text,regular,pure_instructions
	.globl	__ZN16FrickinWebcamApp4drawEv
	.align	4, 0x90
__ZN16FrickinWebcamApp4drawEv:          ## @_ZN16FrickinWebcamApp4drawEv
	.cfi_startproc
Lfunc_begin11:
	.loc	1 29 0                  ## /Users/ariggs/Documents/experiments/Cinder/FrickinWebcam/xcode/../src/FrickinWebcamApp.cpp:29:0
## BB#0:
	pushl	%ebp
Ltmp108:
	.cfi_def_cfa_offset 8
Ltmp109:
	.cfi_offset %ebp, -8
	movl	%esp, %ebp
Ltmp110:
	.cfi_def_cfa_register %ebp
	subl	$72, %esp
	calll	L11$pb
L11$pb:
	popl	%eax
	movl	8(%ebp), %ecx
	leal	-40(%ebp), %edx
	movss	LCPI11_0-L11$pb(%eax), %xmm0
	movss	LCPI11_1-L11$pb(%eax), %xmm1
	movl	%ecx, -4(%ebp)
	.loc	1 31 2 prologue_end     ## /Users/ariggs/Documents/experiments/Cinder/FrickinWebcam/xcode/../src/FrickinWebcamApp.cpp:31:2
Ltmp111:
	movl	%edx, (%esp)
	movss	%xmm0, 4(%esp)
	movss	%xmm1, 8(%esp)
	movss	%xmm1, 12(%esp)
	calll	__ZN6cinder6ColorTIfEC1Efff
	movl	$1, %eax
	cvtsi2ss	%eax, %xmm0
	movss	%xmm0, (%esp)
	calll	__ZN6cinder9CHANTRAITIfE7convertEf
	fstps	-44(%ebp)
	movss	-44(%ebp), %xmm0
	leal	-24(%ebp), %eax
	leal	-40(%ebp), %ecx
	movl	%eax, (%esp)
	movl	%ecx, 4(%esp)
	movss	%xmm0, 8(%esp)
	calll	__ZN6cinder7ColorATIfEC1ERKNS_6ColorTIfEEf
	leal	-24(%ebp), %eax
	movl	$1, %ecx
	movl	%eax, (%esp)
	movl	$1, 4(%esp)
	movl	%ecx, -48(%ebp)         ## 4-byte Spill
	calll	__ZN6cinder2gl5clearERKNS_7ColorATIfEEb
	.loc	1 32 1                  ## /Users/ariggs/Documents/experiments/Cinder/FrickinWebcam/xcode/../src/FrickinWebcamApp.cpp:32:1
	addl	$72, %esp
	popl	%ebp
	ret
Ltmp112:
Lfunc_end11:
	.cfi_endproc

	.section	__TEXT,__textcoal_nt,coalesced,pure_instructions
	.globl	__ZN6cinder7ColorATIfEC1ERKNS_6ColorTIfEEf
	.weak_definition	__ZN6cinder7ColorATIfEC1ERKNS_6ColorTIfEEf
	.align	4, 0x90
__ZN6cinder7ColorATIfEC1ERKNS_6ColorTIfEEf: ## @_ZN6cinder7ColorATIfEC1ERKNS_6ColorTIfEEf
	.cfi_startproc
Lfunc_begin12:
	.loc	61 218 0                ## ../../cinder_0.8.4_mac/include/cinder/Color.h:218:0
## BB#0:
	pushl	%ebp
Ltmp115:
	.cfi_def_cfa_offset 8
Ltmp116:
	.cfi_offset %ebp, -8
	movl	%esp, %ebp
Ltmp117:
	.cfi_def_cfa_register %ebp
	subl	$24, %esp
	movss	16(%ebp), %xmm0
	movl	12(%ebp), %eax
	movl	8(%ebp), %ecx
	movl	%ecx, -4(%ebp)
	movl	%eax, -8(%ebp)
	movss	%xmm0, -12(%ebp)
	movl	-4(%ebp), %eax
	.loc	61 218 3 prologue_end   ## ../../cinder_0.8.4_mac/include/cinder/Color.h:218:3
Ltmp118:
	movss	-12(%ebp), %xmm0
	movl	-8(%ebp), %ecx
	movl	%eax, (%esp)
	movl	%ecx, 4(%esp)
	movss	%xmm0, 8(%esp)
	calll	__ZN6cinder7ColorATIfEC2ERKNS_6ColorTIfEEf
	addl	$24, %esp
	popl	%ebp
	ret
Ltmp119:
Lfunc_end12:
	.cfi_endproc

	.globl	__ZN6cinder6ColorTIfEC1Efff
	.weak_definition	__ZN6cinder6ColorTIfEC1Efff
	.align	4, 0x90
__ZN6cinder6ColorTIfEC1Efff:            ## @_ZN6cinder6ColorTIfEC1Efff
	.cfi_startproc
Lfunc_begin13:
	.loc	61 49 0                 ## ../../cinder_0.8.4_mac/include/cinder/Color.h:49:0
## BB#0:
	pushl	%ebp
Ltmp122:
	.cfi_def_cfa_offset 8
Ltmp123:
	.cfi_offset %ebp, -8
	movl	%esp, %ebp
Ltmp124:
	.cfi_def_cfa_register %ebp
	subl	$40, %esp
	movss	20(%ebp), %xmm0
	movss	16(%ebp), %xmm1
	movss	12(%ebp), %xmm2
	movl	8(%ebp), %eax
	movl	%eax, -4(%ebp)
	movss	%xmm2, -8(%ebp)
	movss	%xmm1, -12(%ebp)
	movss	%xmm0, -16(%ebp)
	movl	-4(%ebp), %eax
	.loc	61 49 3 prologue_end    ## ../../cinder_0.8.4_mac/include/cinder/Color.h:49:3
Ltmp125:
	movss	-8(%ebp), %xmm0
	movss	-12(%ebp), %xmm1
	movss	-16(%ebp), %xmm2
	movl	%eax, (%esp)
	movss	%xmm0, 4(%esp)
	movss	%xmm1, 8(%esp)
	movss	%xmm2, 12(%esp)
	calll	__ZN6cinder6ColorTIfEC2Efff
	addl	$40, %esp
	popl	%ebp
	ret
Ltmp126:
Lfunc_end13:
	.cfi_endproc

	.globl	__ZN6cinder9CHANTRAITIfE7convertEf
	.weak_definition	__ZN6cinder9CHANTRAITIfE7convertEf
	.align	4, 0x90
__ZN6cinder9CHANTRAITIfE7convertEf:     ## @_ZN6cinder9CHANTRAITIfE7convertEf
	.cfi_startproc
Lfunc_begin14:
	.loc	62 74 0                 ## ../../cinder_0.8.4_mac/include/cinder/ChanTraits.h:74:0
## BB#0:
	pushl	%ebp
Ltmp129:
	.cfi_def_cfa_offset 8
Ltmp130:
	.cfi_offset %ebp, -8
	movl	%esp, %ebp
Ltmp131:
	.cfi_def_cfa_register %ebp
	subl	$12, %esp
	movss	8(%ebp), %xmm0
	##DEBUG_VALUE: convert:v <- undef
	movss	%xmm0, -4(%ebp)
	.loc	62 74 36 prologue_end   ## ../../cinder_0.8.4_mac/include/cinder/ChanTraits.h:74:36
Ltmp132:
	movss	%xmm0, -8(%ebp)
	flds	-8(%ebp)
	movss	%xmm0, -12(%ebp)        ## 4-byte Spill
	addl	$12, %esp
	popl	%ebp
	ret
Ltmp133:
Lfunc_end14:
	.cfi_endproc

	.section	__TEXT,__text,regular,pure_instructions
	.globl	_main
	.align	4, 0x90
_main:                                  ## @main
	.cfi_startproc
	.cfi_personality 155, L___gxx_personality_v0$non_lazy_ptr
Leh_func_begin15:
	.cfi_lsda 16, Lexception15
Lfunc_begin15:
	.loc	1 34 0                  ## /Users/ariggs/Documents/experiments/Cinder/FrickinWebcam/xcode/../src/FrickinWebcamApp.cpp:34:0
## BB#0:
	pushl	%ebp
Ltmp143:
	.cfi_def_cfa_offset 8
Ltmp144:
	.cfi_offset %ebp, -8
	movl	%esp, %ebp
Ltmp145:
	.cfi_def_cfa_register %ebp
	pushl	%ebx
	pushl	%edi
	pushl	%esi
	subl	$76, %esp
Ltmp146:
	.cfi_offset %esi, -20
Ltmp147:
	.cfi_offset %edi, -16
Ltmp148:
	.cfi_offset %ebx, -12
	calll	L15$pb
L15$pb:
	popl	%eax
	movl	12(%ebp), %ecx
	movl	8(%ebp), %edx
	##DEBUG_VALUE: main:argc <- undef
	##DEBUG_VALUE: main:argv <- undef
	movl	$0, -16(%ebp)
	movl	%edx, -20(%ebp)
	movl	%ecx, -24(%ebp)
	.loc	1 34 1 prologue_end     ## /Users/ariggs/Documents/experiments/Cinder/FrickinWebcam/xcode/../src/FrickinWebcamApp.cpp:34:1
Ltmp149:
	movl	%eax, -44(%ebp)         ## 4-byte Spill
	calll	__ZN6cinder3app8AppBasic13prepareLaunchEv
	movl	%esp, %eax
	movl	$308, (%eax)            ## imm = 0x134
	calll	__Znwm
	movl	%eax, %ecx
	movl	%eax, %edx
Ltmp134:
	movl	%esp, %esi
	movl	%eax, (%esi)
	movl	%edx, -48(%ebp)         ## 4-byte Spill
	movl	%ecx, -52(%ebp)         ## 4-byte Spill
	calll	__ZN16FrickinWebcamAppC1Ev
Ltmp135:
	jmp	LBB15_1
LBB15_1:
	movl	-52(%ebp), %eax         ## 4-byte Reload
	movl	%eax, -28(%ebp)
Ltmp150:
	##DEBUG_VALUE: ren <- [%ebp+$-40]+$0
	movl	%esp, %ecx
	movl	$16, (%ecx)
	calll	__Znwm
	movl	%eax, %ecx
	movl	%eax, %edx
Ltmp137:
	movl	%esp, %esi
	movl	%eax, (%esi)
	movl	%edx, -56(%ebp)         ## 4-byte Spill
	movl	%ecx, -60(%ebp)         ## 4-byte Spill
	calll	__ZN6cinder3app10RendererGlC1Ev
Ltmp138:
	jmp	LBB15_2
LBB15_2:
	movl	-44(%ebp), %eax         ## 4-byte Reload
	leal	L_.str4-L15$pb(%eax), %ecx
	movl	-60(%ebp), %edx         ## 4-byte Reload
	movl	%edx, -40(%ebp)
	movl	-28(%ebp), %edx
	movl	-40(%ebp), %esi
	movl	-20(%ebp), %edi
	movl	-24(%ebp), %ebx
	movl	%edx, (%esp)
	movl	%esi, 4(%esp)
	movl	%ecx, 8(%esp)
	movl	%edi, 12(%esp)
	movl	%ebx, 16(%esp)
	calll	__ZN6cinder3app8AppBasic13executeLaunchEPS1_PNS0_8RendererEPKciPKPc
	calll	__ZN6cinder3app8AppBasic13cleanupLaunchEv
	movl	$0, %eax
	addl	$76, %esp
	popl	%esi
	popl	%edi
	popl	%ebx
	popl	%ebp
	ret
LBB15_3:
Ltmp136:
	movl	%eax, -32(%ebp)
	movl	%edx, -36(%ebp)
	movl	-48(%ebp), %eax         ## 4-byte Reload
	movl	%eax, (%esp)
	calll	__ZdlPv
	jmp	LBB15_5
LBB15_4:
Ltmp139:
	movl	%eax, -32(%ebp)
	movl	%edx, -36(%ebp)
	movl	-56(%ebp), %eax         ## 4-byte Reload
	movl	%eax, (%esp)
	calll	__ZdlPv
LBB15_5:
	movl	-32(%ebp), %eax
	movl	%eax, (%esp)
	calll	__Unwind_Resume
Ltmp151:
Lfunc_end15:
	.cfi_endproc
Leh_func_end15:
	.section	__TEXT,__gcc_except_tab
	.align	2
GCC_except_table15:
Lexception15:
	.byte	255                     ## @LPStart Encoding = omit
	.byte	155                     ## @TType Encoding = indirect pcrel sdata4
	.asciz	 "\303\200"             ## @TType base offset
	.byte	3                       ## Call site Encoding = udata4
	.byte	65                      ## Call site table length
Lset27 = Leh_func_begin15-Leh_func_begin15 ## >> Call Site 1 <<
	.long	Lset27
Lset28 = Ltmp134-Leh_func_begin15       ##   Call between Leh_func_begin15 and Ltmp134
	.long	Lset28
	.long	0                       ##     has no landing pad
	.byte	0                       ##   On action: cleanup
Lset29 = Ltmp134-Leh_func_begin15       ## >> Call Site 2 <<
	.long	Lset29
Lset30 = Ltmp135-Ltmp134                ##   Call between Ltmp134 and Ltmp135
	.long	Lset30
Lset31 = Ltmp136-Leh_func_begin15       ##     jumps to Ltmp136
	.long	Lset31
	.byte	0                       ##   On action: cleanup
Lset32 = Ltmp135-Leh_func_begin15       ## >> Call Site 3 <<
	.long	Lset32
Lset33 = Ltmp137-Ltmp135                ##   Call between Ltmp135 and Ltmp137
	.long	Lset33
	.long	0                       ##     has no landing pad
	.byte	0                       ##   On action: cleanup
Lset34 = Ltmp137-Leh_func_begin15       ## >> Call Site 4 <<
	.long	Lset34
Lset35 = Ltmp138-Ltmp137                ##   Call between Ltmp137 and Ltmp138
	.long	Lset35
Lset36 = Ltmp139-Leh_func_begin15       ##     jumps to Ltmp139
	.long	Lset36
	.byte	0                       ##   On action: cleanup
Lset37 = Ltmp138-Leh_func_begin15       ## >> Call Site 5 <<
	.long	Lset37
Lset38 = Leh_func_end15-Ltmp138         ##   Call between Ltmp138 and Leh_func_end15
	.long	Lset38
	.long	0                       ##     has no landing pad
	.byte	0                       ##   On action: cleanup
	.align	2

	.section	__TEXT,__textcoal_nt,coalesced,pure_instructions
	.globl	__ZN6cinder3app8AppBasic13prepareLaunchEv
	.weak_definition	__ZN6cinder3app8AppBasic13prepareLaunchEv
	.align	4, 0x90
__ZN6cinder3app8AppBasic13prepareLaunchEv: ## @_ZN6cinder3app8AppBasic13prepareLaunchEv
	.cfi_startproc
Lfunc_begin16:
	.loc	86 193 0                ## ../../cinder_0.8.4_mac/include/cinder/app/AppBasic.h:193:0
## BB#0:
	pushl	%ebp
Ltmp154:
	.cfi_def_cfa_offset 8
Ltmp155:
	.cfi_offset %ebp, -8
	movl	%esp, %ebp
Ltmp156:
	.cfi_def_cfa_register %ebp
	.loc	86 193 33 prologue_end  ## ../../cinder_0.8.4_mac/include/cinder/app/AppBasic.h:193:33
Ltmp157:
	subl	$8, %esp
	calll	__ZN6cinder3app3App13prepareLaunchEv
	.loc	86 193 55               ## ../../cinder_0.8.4_mac/include/cinder/app/AppBasic.h:193:55
	addl	$8, %esp
	popl	%ebp
	ret
Ltmp158:
Lfunc_end16:
	.cfi_endproc

	.globl	__ZN16FrickinWebcamAppC1Ev
	.weak_definition	__ZN16FrickinWebcamAppC1Ev
	.align	4, 0x90
__ZN16FrickinWebcamAppC1Ev:             ## @_ZN16FrickinWebcamAppC1Ev
	.cfi_startproc
Lfunc_begin17:
	.loc	1 8 0                   ## /Users/ariggs/Documents/experiments/Cinder/FrickinWebcam/xcode/../src/FrickinWebcamApp.cpp:8:0
## BB#0:
	pushl	%ebp
Ltmp161:
	.cfi_def_cfa_offset 8
Ltmp162:
	.cfi_offset %ebp, -8
	movl	%esp, %ebp
Ltmp163:
	.cfi_def_cfa_register %ebp
	subl	$8, %esp
	movl	8(%ebp), %eax
	movl	%eax, -4(%ebp)
	movl	-4(%ebp), %eax
	.loc	1 8 7 prologue_end      ## /Users/ariggs/Documents/experiments/Cinder/FrickinWebcam/xcode/../src/FrickinWebcamApp.cpp:8:7
Ltmp164:
	movl	%eax, (%esp)
	calll	__ZN16FrickinWebcamAppC2Ev
	addl	$8, %esp
	popl	%ebp
	ret
Ltmp165:
Lfunc_end17:
	.cfi_endproc

	.globl	__ZN6cinder3app8AppBasic13executeLaunchEPS1_PNS0_8RendererEPKciPKPc
	.weak_definition	__ZN6cinder3app8AppBasic13executeLaunchEPS1_PNS0_8RendererEPKciPKPc
	.align	4, 0x90
__ZN6cinder3app8AppBasic13executeLaunchEPS1_PNS0_8RendererEPKciPKPc: ## @_ZN6cinder3app8AppBasic13executeLaunchEPS1_PNS0_8RendererEPKciPKPc
	.cfi_startproc
Lfunc_begin18:
	.loc	86 197 0                ## ../../cinder_0.8.4_mac/include/cinder/app/AppBasic.h:197:0
## BB#0:
	pushl	%ebp
Ltmp169:
	.cfi_def_cfa_offset 8
Ltmp170:
	.cfi_offset %ebp, -8
	movl	%esp, %ebp
Ltmp171:
	.cfi_def_cfa_register %ebp
	pushl	%ebx
	pushl	%edi
	pushl	%esi
	subl	$44, %esp
Ltmp172:
	.cfi_offset %esi, -20
Ltmp173:
	.cfi_offset %edi, -16
Ltmp174:
	.cfi_offset %ebx, -12
	calll	L18$pb
L18$pb:
	popl	%eax
	movl	24(%ebp), %ecx
	movl	20(%ebp), %edx
	movl	16(%ebp), %esi
	movl	12(%ebp), %edi
	movl	8(%ebp), %ebx
	movl	L__ZN6cinder3app8AppBasic9sInstanceE$non_lazy_ptr-L18$pb(%eax), %eax
	movl	%ebx, -16(%ebp)
	movl	%edi, -20(%ebp)
	movl	%esi, -24(%ebp)
	movl	%edx, -28(%ebp)
	movl	%ecx, -32(%ebp)
	.loc	86 197 124 prologue_end ## ../../cinder_0.8.4_mac/include/cinder/app/AppBasic.h:197:124
Ltmp175:
	movl	-16(%ebp), %ecx
	movl	%ecx, (%eax)
	.loc	86 197 141              ## ../../cinder_0.8.4_mac/include/cinder/app/AppBasic.h:197:141
	movl	-16(%ebp), %eax
	movl	-20(%ebp), %ecx
	movl	-24(%ebp), %edx
	movl	-28(%ebp), %esi
	movl	-32(%ebp), %edi
	movl	%eax, (%esp)
	movl	%ecx, 4(%esp)
	movl	%edx, 8(%esp)
	movl	%esi, 12(%esp)
	movl	%edi, 16(%esp)
	calll	__ZN6cinder3app3App13executeLaunchEPS1_PNS0_8RendererEPKciPKPc
	.loc	86 197 197              ## ../../cinder_0.8.4_mac/include/cinder/app/AppBasic.h:197:197
	addl	$44, %esp
	popl	%esi
	popl	%edi
	popl	%ebx
	popl	%ebp
	ret
Ltmp176:
Lfunc_end18:
	.cfi_endproc

	.globl	__ZN6cinder3app8AppBasic13cleanupLaunchEv
	.weak_definition	__ZN6cinder3app8AppBasic13cleanupLaunchEv
	.align	4, 0x90
__ZN6cinder3app8AppBasic13cleanupLaunchEv: ## @_ZN6cinder3app8AppBasic13cleanupLaunchEv
	.cfi_startproc
Lfunc_begin19:
	.loc	86 199 0                ## ../../cinder_0.8.4_mac/include/cinder/app/AppBasic.h:199:0
## BB#0:
	pushl	%ebp
Ltmp179:
	.cfi_def_cfa_offset 8
Ltmp180:
	.cfi_offset %ebp, -8
	movl	%esp, %ebp
Ltmp181:
	.cfi_def_cfa_register %ebp
	.loc	86 199 33 prologue_end  ## ../../cinder_0.8.4_mac/include/cinder/app/AppBasic.h:199:33
Ltmp182:
	subl	$8, %esp
	calll	__ZN6cinder3app3App13cleanupLaunchEv
	.loc	86 199 55               ## ../../cinder_0.8.4_mac/include/cinder/app/AppBasic.h:199:55
	addl	$8, %esp
	popl	%ebp
	ret
Ltmp183:
Lfunc_end19:
	.cfi_endproc

	.globl	__ZN5boost6system14error_categoryD1Ev
	.weak_definition	__ZN5boost6system14error_categoryD1Ev
	.align	4, 0x90
__ZN5boost6system14error_categoryD1Ev:  ## @_ZN5boost6system14error_categoryD1Ev
	.cfi_startproc
Lfunc_begin20:
	.loc	16 185 0                ## ../../cinder_0.8.4_mac/boost/boost/system/error_code.hpp:185:0
## BB#0:
	pushl	%ebp
Ltmp186:
	.cfi_def_cfa_offset 8
Ltmp187:
	.cfi_offset %ebp, -8
	movl	%esp, %ebp
Ltmp188:
	.cfi_def_cfa_register %ebp
	subl	$8, %esp
	movl	8(%ebp), %eax
	movl	%eax, -4(%ebp)
	movl	-4(%ebp), %eax
	.loc	16 185 32 prologue_end  ## ../../cinder_0.8.4_mac/boost/boost/system/error_code.hpp:185:32
Ltmp189:
	movl	%eax, (%esp)
	calll	__ZN5boost6system14error_categoryD2Ev
	.loc	16 185 33               ## ../../cinder_0.8.4_mac/boost/boost/system/error_code.hpp:185:33
	addl	$8, %esp
	popl	%ebp
	ret
Ltmp190:
Lfunc_end20:
	.cfi_endproc

	.globl	__ZN5boost6system14error_categoryD0Ev
	.weak_definition	__ZN5boost6system14error_categoryD0Ev
	.align	4, 0x90
__ZN5boost6system14error_categoryD0Ev:  ## @_ZN5boost6system14error_categoryD0Ev
	.cfi_startproc
	.cfi_personality 155, L___gxx_personality_v0$non_lazy_ptr
Leh_func_begin21:
	.cfi_lsda 16, Lexception21
Lfunc_begin21:
	.loc	16 185 0                ## ../../cinder_0.8.4_mac/boost/boost/system/error_code.hpp:185:0
## BB#0:
	pushl	%ebp
Ltmp196:
	.cfi_def_cfa_offset 8
Ltmp197:
	.cfi_offset %ebp, -8
	movl	%esp, %ebp
Ltmp198:
	.cfi_def_cfa_register %ebp
	subl	$24, %esp
	movl	8(%ebp), %eax
	##DEBUG_VALUE: ~error_category:this <- undef
	movl	%eax, -4(%ebp)
	movl	%eax, %ecx
	.loc	16 185 32 prologue_end  ## ../../cinder_0.8.4_mac/boost/boost/system/error_code.hpp:185:32
Ltmp199:
Ltmp191:
	movl	%esp, %edx
	movl	%eax, (%edx)
	movl	%ecx, -16(%ebp)         ## 4-byte Spill
	calll	__ZN5boost6system14error_categoryD1Ev
Ltmp192:
	jmp	LBB21_1
LBB21_1:
	movl	-16(%ebp), %eax         ## 4-byte Reload
	movl	%eax, (%esp)
	calll	__ZdlPv
	.loc	16 185 33               ## ../../cinder_0.8.4_mac/boost/boost/system/error_code.hpp:185:33
	addl	$24, %esp
	popl	%ebp
	ret
LBB21_2:
Ltmp193:
	.loc	16 185 32               ## ../../cinder_0.8.4_mac/boost/boost/system/error_code.hpp:185:32
	movl	%eax, -8(%ebp)
	movl	%edx, -12(%ebp)
	movl	-16(%ebp), %eax         ## 4-byte Reload
	movl	%eax, (%esp)
	calll	__ZdlPv
## BB#3:
	movl	-8(%ebp), %eax
	movl	%eax, (%esp)
	calll	__Unwind_Resume
Ltmp200:
Lfunc_end21:
	.cfi_endproc
Leh_func_end21:
	.section	__TEXT,__gcc_except_tab
	.align	2
GCC_except_table21:
Lexception21:
	.byte	255                     ## @LPStart Encoding = omit
	.byte	155                     ## @TType Encoding = indirect pcrel sdata4
	.asciz	 "\234"                 ## @TType base offset
	.byte	3                       ## Call site Encoding = udata4
	.byte	26                      ## Call site table length
Lset39 = Ltmp191-Leh_func_begin21       ## >> Call Site 1 <<
	.long	Lset39
Lset40 = Ltmp192-Ltmp191                ##   Call between Ltmp191 and Ltmp192
	.long	Lset40
Lset41 = Ltmp193-Leh_func_begin21       ##     jumps to Ltmp193
	.long	Lset41
	.byte	0                       ##   On action: cleanup
Lset42 = Ltmp192-Leh_func_begin21       ## >> Call Site 2 <<
	.long	Lset42
Lset43 = Leh_func_end21-Ltmp192         ##   Call between Ltmp192 and Leh_func_end21
	.long	Lset43
	.long	0                       ##     has no landing pad
	.byte	0                       ##   On action: cleanup
	.align	2

	.section	__TEXT,__textcoal_nt,coalesced,pure_instructions
	.globl	__ZNK5boost6system14error_category10equivalentEiRKNS0_15error_conditionE
	.weak_definition	__ZNK5boost6system14error_category10equivalentEiRKNS0_15error_conditionE
	.align	4, 0x90
__ZNK5boost6system14error_category10equivalentEiRKNS0_15error_conditionE: ## @_ZNK5boost6system14error_category10equivalentEiRKNS0_15error_conditionE
	.cfi_startproc
Lfunc_begin22:
	.loc	16 492 0                ## ../../cinder_0.8.4_mac/boost/boost/system/error_code.hpp:492:0
## BB#0:
	pushl	%ebp
Ltmp204:
	.cfi_def_cfa_offset 8
Ltmp205:
	.cfi_offset %ebp, -8
	movl	%esp, %ebp
Ltmp206:
	.cfi_def_cfa_register %ebp
	pushl	%edi
	pushl	%esi
	subl	$48, %esp
Ltmp207:
	.cfi_offset %esi, -16
Ltmp208:
	.cfi_offset %edi, -12
	movl	16(%ebp), %eax
	movl	12(%ebp), %ecx
	movl	8(%ebp), %edx
	leal	-32(%ebp), %esi
	##DEBUG_VALUE: equivalent:this <- undef
	##DEBUG_VALUE: equivalent:code <- undef
	##DEBUG_VALUE: equivalent:condition <- undef
	movl	%edx, -12(%ebp)
	movl	%ecx, -16(%ebp)
	movl	%eax, -20(%ebp)
	movl	-12(%ebp), %eax
	.loc	16 493 14 prologue_end  ## ../../cinder_0.8.4_mac/boost/boost/system/error_code.hpp:493:14
Ltmp209:
	movl	(%eax), %ecx
	movl	16(%ecx), %ecx
	movl	-16(%ebp), %edx
	movl	%esp, %edi
	movl	%edx, 4(%edi)
	movl	%eax, (%edi)
	movl	%esi, -36(%ebp)         ## 4-byte Spill
	calll	*%ecx
	movl	%edx, -28(%ebp)
	movl	%eax, -32(%ebp)
	movl	-20(%ebp), %eax
	movl	-36(%ebp), %ecx         ## 4-byte Reload
	movl	%ecx, (%esp)
	movl	%eax, 4(%esp)
	calll	__ZN5boost6systemeqERKNS0_15error_conditionES3_
	andb	$1, %al
	movzbl	%al, %eax
	addl	$48, %esp
	popl	%esi
	popl	%edi
	popl	%ebp
	ret
Ltmp210:
Lfunc_end22:
	.cfi_endproc

	.globl	__ZNK5boost6system14error_category10equivalentERKNS0_10error_codeEi
	.weak_definition	__ZNK5boost6system14error_category10equivalentERKNS0_10error_codeEi
	.align	4, 0x90
__ZNK5boost6system14error_category10equivalentERKNS0_10error_codeEi: ## @_ZNK5boost6system14error_category10equivalentERKNS0_10error_codeEi
	.cfi_startproc
Lfunc_begin23:
	.loc	16 498 0                ## ../../cinder_0.8.4_mac/boost/boost/system/error_code.hpp:498:0
## BB#0:
	pushl	%ebp
Ltmp213:
	.cfi_def_cfa_offset 8
Ltmp214:
	.cfi_offset %ebp, -8
	movl	%esp, %ebp
Ltmp215:
	.cfi_def_cfa_register %ebp
	subl	$40, %esp
	movl	16(%ebp), %eax
	movl	12(%ebp), %ecx
	movl	8(%ebp), %edx
	movl	%edx, -4(%ebp)
	movl	%ecx, -8(%ebp)
	movl	%eax, -12(%ebp)
	movl	-4(%ebp), %eax
	.loc	16 499 23 prologue_end  ## ../../cinder_0.8.4_mac/boost/boost/system/error_code.hpp:499:23
Ltmp216:
	movl	-8(%ebp), %ecx
	movl	%ecx, (%esp)
	movl	%eax, -16(%ebp)         ## 4-byte Spill
	calll	__ZNK5boost6system10error_code8categoryEv
	movl	-16(%ebp), %ecx         ## 4-byte Reload
	movl	%ecx, (%esp)
	movl	%eax, 4(%esp)
	calll	__ZNK5boost6system14error_categoryeqERKS1_
	movb	$0, %ah
	testb	$1, %al
	movb	%ah, -17(%ebp)          ## 1-byte Spill
	jne	LBB23_1
	jmp	LBB23_2
LBB23_1:
	.loc	16 499 42               ## ../../cinder_0.8.4_mac/boost/boost/system/error_code.hpp:499:42
	movl	-8(%ebp), %eax
	movl	%eax, (%esp)
	calll	__ZNK5boost6system10error_code5valueEv
	cmpl	-12(%ebp), %eax
	sete	%cl
	movb	%cl, -17(%ebp)          ## 1-byte Spill
Ltmp217:
LBB23_2:
	movb	-17(%ebp), %al          ## 1-byte Reload
	.loc	16 500 5                ## ../../cinder_0.8.4_mac/boost/boost/system/error_code.hpp:500:5
	andb	$1, %al
	movzbl	%al, %eax
	addl	$40, %esp
	popl	%ebp
	ret
Ltmp218:
Lfunc_end23:
	.cfi_endproc

	.globl	__ZN5boost6system12system_errorD1Ev
	.weak_definition	__ZN5boost6system12system_errorD1Ev
	.align	4, 0x90
__ZN5boost6system12system_errorD1Ev:    ## @_ZN5boost6system12system_errorD1Ev
	.cfi_startproc
Lfunc_begin24:
	.loc	46 47 0                 ## ../../cinder_0.8.4_mac/boost/boost/system/system_error.hpp:47:0
## BB#0:
	pushl	%ebp
Ltmp221:
	.cfi_def_cfa_offset 8
Ltmp222:
	.cfi_offset %ebp, -8
	movl	%esp, %ebp
Ltmp223:
	.cfi_def_cfa_register %ebp
	subl	$8, %esp
	movl	8(%ebp), %eax
	movl	%eax, -4(%ebp)
	movl	-4(%ebp), %eax
	.loc	46 47 39 prologue_end   ## ../../cinder_0.8.4_mac/boost/boost/system/system_error.hpp:47:39
Ltmp224:
	movl	%eax, (%esp)
	calll	__ZN5boost6system12system_errorD2Ev
	.loc	46 47 40                ## ../../cinder_0.8.4_mac/boost/boost/system/system_error.hpp:47:40
	addl	$8, %esp
	popl	%ebp
	ret
Ltmp225:
Lfunc_end24:
	.cfi_endproc

	.globl	__ZN5boost6system12system_errorD0Ev
	.weak_definition	__ZN5boost6system12system_errorD0Ev
	.align	4, 0x90
__ZN5boost6system12system_errorD0Ev:    ## @_ZN5boost6system12system_errorD0Ev
	.cfi_startproc
Lfunc_begin25:
	.loc	46 47 0                 ## ../../cinder_0.8.4_mac/boost/boost/system/system_error.hpp:47:0
## BB#0:
	pushl	%ebp
Ltmp228:
	.cfi_def_cfa_offset 8
Ltmp229:
	.cfi_offset %ebp, -8
	movl	%esp, %ebp
Ltmp230:
	.cfi_def_cfa_register %ebp
	subl	$24, %esp
	movl	8(%ebp), %eax
	movl	%eax, -4(%ebp)
	movl	-4(%ebp), %eax
	.loc	46 47 39 prologue_end   ## ../../cinder_0.8.4_mac/boost/boost/system/system_error.hpp:47:39
Ltmp231:
	movl	%eax, (%esp)
	movl	%eax, -8(%ebp)          ## 4-byte Spill
	calll	__ZN5boost6system12system_errorD1Ev
	movl	-8(%ebp), %eax          ## 4-byte Reload
	movl	%eax, (%esp)
	calll	__ZdlPv
	.loc	46 47 40                ## ../../cinder_0.8.4_mac/boost/boost/system/system_error.hpp:47:40
	addl	$24, %esp
	popl	%ebp
	ret
Ltmp232:
Lfunc_end25:
	.cfi_endproc

	.globl	__ZN16FrickinWebcamAppD1Ev
	.weak_definition	__ZN16FrickinWebcamAppD1Ev
	.align	4, 0x90
__ZN16FrickinWebcamAppD1Ev:             ## @_ZN16FrickinWebcamAppD1Ev
	.cfi_startproc
Lfunc_begin26:
	.loc	1 8 0                   ## /Users/ariggs/Documents/experiments/Cinder/FrickinWebcam/xcode/../src/FrickinWebcamApp.cpp:8:0
## BB#0:
	pushl	%ebp
Ltmp235:
	.cfi_def_cfa_offset 8
Ltmp236:
	.cfi_offset %ebp, -8
	movl	%esp, %ebp
Ltmp237:
	.cfi_def_cfa_register %ebp
	subl	$8, %esp
	movl	8(%ebp), %eax
	movl	%eax, -4(%ebp)
	movl	-4(%ebp), %eax
	.loc	1 8 7 prologue_end      ## /Users/ariggs/Documents/experiments/Cinder/FrickinWebcam/xcode/../src/FrickinWebcamApp.cpp:8:7
Ltmp238:
	movl	%eax, (%esp)
	calll	__ZN16FrickinWebcamAppD2Ev
	addl	$8, %esp
	popl	%ebp
	ret
Ltmp239:
Lfunc_end26:
	.cfi_endproc

	.globl	__ZN16FrickinWebcamAppD0Ev
	.weak_definition	__ZN16FrickinWebcamAppD0Ev
	.align	4, 0x90
__ZN16FrickinWebcamAppD0Ev:             ## @_ZN16FrickinWebcamAppD0Ev
	.cfi_startproc
	.cfi_personality 155, L___gxx_personality_v0$non_lazy_ptr
Leh_func_begin27:
	.cfi_lsda 16, Lexception27
Lfunc_begin27:
	.loc	1 8 0                   ## /Users/ariggs/Documents/experiments/Cinder/FrickinWebcam/xcode/../src/FrickinWebcamApp.cpp:8:0
## BB#0:
	pushl	%ebp
Ltmp245:
	.cfi_def_cfa_offset 8
Ltmp246:
	.cfi_offset %ebp, -8
	movl	%esp, %ebp
Ltmp247:
	.cfi_def_cfa_register %ebp
	subl	$24, %esp
	movl	8(%ebp), %eax
	##DEBUG_VALUE: ~FrickinWebcamApp:this <- undef
	movl	%eax, -4(%ebp)
	movl	%eax, %ecx
	.loc	1 8 7 prologue_end      ## /Users/ariggs/Documents/experiments/Cinder/FrickinWebcam/xcode/../src/FrickinWebcamApp.cpp:8:7
Ltmp248:
Ltmp240:
	movl	%esp, %edx
	movl	%eax, (%edx)
	movl	%ecx, -16(%ebp)         ## 4-byte Spill
	calll	__ZN16FrickinWebcamAppD1Ev
Ltmp241:
	jmp	LBB27_1
LBB27_1:
	movl	-16(%ebp), %eax         ## 4-byte Reload
	movl	%eax, (%esp)
	calll	__ZdlPv
	addl	$24, %esp
	popl	%ebp
	ret
LBB27_2:
Ltmp242:
	movl	%eax, -8(%ebp)
	movl	%edx, -12(%ebp)
	movl	-16(%ebp), %eax         ## 4-byte Reload
	movl	%eax, (%esp)
	calll	__ZdlPv
## BB#3:
	movl	-8(%ebp), %eax
	movl	%eax, (%esp)
	calll	__Unwind_Resume
Ltmp249:
Lfunc_end27:
	.cfi_endproc
Leh_func_end27:
	.section	__TEXT,__gcc_except_tab
	.align	2
GCC_except_table27:
Lexception27:
	.byte	255                     ## @LPStart Encoding = omit
	.byte	155                     ## @TType Encoding = indirect pcrel sdata4
	.asciz	 "\234"                 ## @TType base offset
	.byte	3                       ## Call site Encoding = udata4
	.byte	26                      ## Call site table length
Lset44 = Ltmp240-Leh_func_begin27       ## >> Call Site 1 <<
	.long	Lset44
Lset45 = Ltmp241-Ltmp240                ##   Call between Ltmp240 and Ltmp241
	.long	Lset45
Lset46 = Ltmp242-Leh_func_begin27       ##     jumps to Ltmp242
	.long	Lset46
	.byte	0                       ##   On action: cleanup
Lset47 = Ltmp241-Leh_func_begin27       ## >> Call Site 2 <<
	.long	Lset47
Lset48 = Leh_func_end27-Ltmp241         ##   Call between Ltmp241 and Leh_func_end27
	.long	Lset48
	.long	0                       ##     has no landing pad
	.byte	0                       ##   On action: cleanup
	.align	2

	.section	__TEXT,__textcoal_nt,coalesced,pure_instructions
	.globl	__ZN6cinder3app3App8shutdownEv
	.weak_definition	__ZN6cinder3app3App8shutdownEv
	.align	4, 0x90
__ZN6cinder3app3App8shutdownEv:         ## @_ZN6cinder3app3App8shutdownEv
	.cfi_startproc
Lfunc_begin28:
	.loc	48 161 0                ## ../../cinder_0.8.4_mac/include/cinder/app/App.h:161:0
## BB#0:
	pushl	%ebp
Ltmp252:
	.cfi_def_cfa_offset 8
Ltmp253:
	.cfi_offset %ebp, -8
	movl	%esp, %ebp
Ltmp254:
	.cfi_def_cfa_register %ebp
	pushl	%eax
	movl	8(%ebp), %eax
	movl	%eax, -4(%ebp)
	.loc	48 161 27 prologue_end  ## ../../cinder_0.8.4_mac/include/cinder/app/App.h:161:27
Ltmp255:
	addl	$4, %esp
	popl	%ebp
	ret
Ltmp256:
Lfunc_end28:
	.cfi_endproc

	.globl	__ZN6cinder3app3App7mouseUpENS0_10MouseEventE
	.weak_definition	__ZN6cinder3app3App7mouseUpENS0_10MouseEventE
	.align	4, 0x90
__ZN6cinder3app3App7mouseUpENS0_10MouseEventE: ## @_ZN6cinder3app3App7mouseUpENS0_10MouseEventE
	.cfi_startproc
Lfunc_begin29:
	.loc	48 171 0                ## ../../cinder_0.8.4_mac/include/cinder/app/App.h:171:0
## BB#0:
	pushl	%ebp
Ltmp259:
	.cfi_def_cfa_offset 8
Ltmp260:
	.cfi_offset %ebp, -8
	movl	%esp, %ebp
Ltmp261:
	.cfi_def_cfa_register %ebp
	pushl	%eax
	movl	8(%ebp), %eax
	movl	%eax, -4(%ebp)
	.loc	48 171 44 prologue_end  ## ../../cinder_0.8.4_mac/include/cinder/app/App.h:171:44
Ltmp262:
	addl	$4, %esp
	popl	%ebp
	ret
Ltmp263:
Lfunc_end29:
	.cfi_endproc

	.globl	__ZN6cinder3app3App10mouseWheelENS0_10MouseEventE
	.weak_definition	__ZN6cinder3app3App10mouseWheelENS0_10MouseEventE
	.align	4, 0x90
__ZN6cinder3app3App10mouseWheelENS0_10MouseEventE: ## @_ZN6cinder3app3App10mouseWheelENS0_10MouseEventE
	.cfi_startproc
Lfunc_begin30:
	.loc	48 173 0                ## ../../cinder_0.8.4_mac/include/cinder/app/App.h:173:0
## BB#0:
	pushl	%ebp
Ltmp266:
	.cfi_def_cfa_offset 8
Ltmp267:
	.cfi_offset %ebp, -8
	movl	%esp, %ebp
Ltmp268:
	.cfi_def_cfa_register %ebp
	pushl	%eax
	movl	8(%ebp), %eax
	movl	%eax, -4(%ebp)
	.loc	48 173 47 prologue_end  ## ../../cinder_0.8.4_mac/include/cinder/app/App.h:173:47
Ltmp269:
	addl	$4, %esp
	popl	%ebp
	ret
Ltmp270:
Lfunc_end30:
	.cfi_endproc

	.globl	__ZN6cinder3app3App9mouseMoveENS0_10MouseEventE
	.weak_definition	__ZN6cinder3app3App9mouseMoveENS0_10MouseEventE
	.align	4, 0x90
__ZN6cinder3app3App9mouseMoveENS0_10MouseEventE: ## @_ZN6cinder3app3App9mouseMoveENS0_10MouseEventE
	.cfi_startproc
Lfunc_begin31:
	.loc	48 175 0                ## ../../cinder_0.8.4_mac/include/cinder/app/App.h:175:0
## BB#0:
	pushl	%ebp
Ltmp273:
	.cfi_def_cfa_offset 8
Ltmp274:
	.cfi_offset %ebp, -8
	movl	%esp, %ebp
Ltmp275:
	.cfi_def_cfa_register %ebp
	pushl	%eax
	movl	8(%ebp), %eax
	movl	%eax, -4(%ebp)
	.loc	48 175 46 prologue_end  ## ../../cinder_0.8.4_mac/include/cinder/app/App.h:175:46
Ltmp276:
	addl	$4, %esp
	popl	%ebp
	ret
Ltmp277:
Lfunc_end31:
	.cfi_endproc

	.globl	__ZN6cinder3app3App9mouseDragENS0_10MouseEventE
	.weak_definition	__ZN6cinder3app3App9mouseDragENS0_10MouseEventE
	.align	4, 0x90
__ZN6cinder3app3App9mouseDragENS0_10MouseEventE: ## @_ZN6cinder3app3App9mouseDragENS0_10MouseEventE
	.cfi_startproc
Lfunc_begin32:
	.loc	48 177 0                ## ../../cinder_0.8.4_mac/include/cinder/app/App.h:177:0
## BB#0:
	pushl	%ebp
Ltmp280:
	.cfi_def_cfa_offset 8
Ltmp281:
	.cfi_offset %ebp, -8
	movl	%esp, %ebp
Ltmp282:
	.cfi_def_cfa_register %ebp
	pushl	%eax
	movl	8(%ebp), %eax
	movl	%eax, -4(%ebp)
	.loc	48 177 46 prologue_end  ## ../../cinder_0.8.4_mac/include/cinder/app/App.h:177:46
Ltmp283:
	addl	$4, %esp
	popl	%ebp
	ret
Ltmp284:
Lfunc_end32:
	.cfi_endproc

	.globl	__ZN6cinder3app3App7keyDownENS0_8KeyEventE
	.weak_definition	__ZN6cinder3app3App7keyDownENS0_8KeyEventE
	.align	4, 0x90
__ZN6cinder3app3App7keyDownENS0_8KeyEventE: ## @_ZN6cinder3app3App7keyDownENS0_8KeyEventE
	.cfi_startproc
Lfunc_begin33:
	.loc	48 179 0                ## ../../cinder_0.8.4_mac/include/cinder/app/App.h:179:0
## BB#0:
	pushl	%ebp
Ltmp287:
	.cfi_def_cfa_offset 8
Ltmp288:
	.cfi_offset %ebp, -8
	movl	%esp, %ebp
Ltmp289:
	.cfi_def_cfa_register %ebp
	pushl	%eax
	movl	8(%ebp), %eax
	movl	%eax, -4(%ebp)
	.loc	48 179 42 prologue_end  ## ../../cinder_0.8.4_mac/include/cinder/app/App.h:179:42
Ltmp290:
	addl	$4, %esp
	popl	%ebp
	ret
Ltmp291:
Lfunc_end33:
	.cfi_endproc

	.globl	__ZN6cinder3app3App5keyUpENS0_8KeyEventE
	.weak_definition	__ZN6cinder3app3App5keyUpENS0_8KeyEventE
	.align	4, 0x90
__ZN6cinder3app3App5keyUpENS0_8KeyEventE: ## @_ZN6cinder3app3App5keyUpENS0_8KeyEventE
	.cfi_startproc
Lfunc_begin34:
	.loc	48 181 0                ## ../../cinder_0.8.4_mac/include/cinder/app/App.h:181:0
## BB#0:
	pushl	%ebp
Ltmp294:
	.cfi_def_cfa_offset 8
Ltmp295:
	.cfi_offset %ebp, -8
	movl	%esp, %ebp
Ltmp296:
	.cfi_def_cfa_register %ebp
	pushl	%eax
	movl	8(%ebp), %eax
	movl	%eax, -4(%ebp)
	.loc	48 181 40 prologue_end  ## ../../cinder_0.8.4_mac/include/cinder/app/App.h:181:40
Ltmp297:
	addl	$4, %esp
	popl	%ebp
	ret
Ltmp298:
Lfunc_end34:
	.cfi_endproc

	.globl	__ZN6cinder3app3App6resizeENS0_11ResizeEventE
	.weak_definition	__ZN6cinder3app3App6resizeENS0_11ResizeEventE
	.align	4, 0x90
__ZN6cinder3app3App6resizeENS0_11ResizeEventE: ## @_ZN6cinder3app3App6resizeENS0_11ResizeEventE
	.cfi_startproc
Lfunc_begin35:
	.loc	48 183 0                ## ../../cinder_0.8.4_mac/include/cinder/app/App.h:183:0
## BB#0:
	pushl	%ebp
Ltmp301:
	.cfi_def_cfa_offset 8
Ltmp302:
	.cfi_offset %ebp, -8
	movl	%esp, %ebp
Ltmp303:
	.cfi_def_cfa_register %ebp
	pushl	%eax
	movl	8(%ebp), %eax
	movl	%eax, -4(%ebp)
	.loc	48 183 44 prologue_end  ## ../../cinder_0.8.4_mac/include/cinder/app/App.h:183:44
Ltmp304:
	addl	$4, %esp
	popl	%ebp
	ret
Ltmp305:
Lfunc_end35:
	.cfi_endproc

	.globl	__ZN6cinder3app3App8fileDropENS0_13FileDropEventE
	.weak_definition	__ZN6cinder3app3App8fileDropENS0_13FileDropEventE
	.align	4, 0x90
__ZN6cinder3app3App8fileDropENS0_13FileDropEventE: ## @_ZN6cinder3app3App8fileDropENS0_13FileDropEventE
	.cfi_startproc
Lfunc_begin36:
	.loc	48 185 0                ## ../../cinder_0.8.4_mac/include/cinder/app/App.h:185:0
## BB#0:
	pushl	%ebp
Ltmp308:
	.cfi_def_cfa_offset 8
Ltmp309:
	.cfi_offset %ebp, -8
	movl	%esp, %ebp
Ltmp310:
	.cfi_def_cfa_register %ebp
	pushl	%eax
	movl	8(%ebp), %eax
	movl	%eax, -4(%ebp)
	.loc	48 185 48 prologue_end  ## ../../cinder_0.8.4_mac/include/cinder/app/App.h:185:48
Ltmp311:
	addl	$4, %esp
	popl	%ebp
	ret
Ltmp312:
Lfunc_end36:
	.cfi_endproc

	.globl	__ZNK6cinder3app8AppBasic11getSettingsEv
	.weak_definition	__ZNK6cinder3app8AppBasic11getSettingsEv
	.align	4, 0x90
__ZNK6cinder3app8AppBasic11getSettingsEv: ## @_ZNK6cinder3app8AppBasic11getSettingsEv
	.cfi_startproc
Lfunc_begin37:
	.loc	86 160 0                ## ../../cinder_0.8.4_mac/include/cinder/app/AppBasic.h:160:0
## BB#0:
	pushl	%ebp
Ltmp315:
	.cfi_def_cfa_offset 8
Ltmp316:
	.cfi_offset %ebp, -8
	movl	%esp, %ebp
Ltmp317:
	.cfi_def_cfa_register %ebp
	pushl	%eax
	movl	8(%ebp), %eax
	movl	%eax, -4(%ebp)
	movl	-4(%ebp), %eax
	.loc	86 160 41 prologue_end  ## ../../cinder_0.8.4_mac/include/cinder/app/AppBasic.h:160:41
Ltmp318:
	addl	$256, %eax              ## imm = 0x100
	addl	$4, %esp
	popl	%ebp
	ret
Ltmp319:
Lfunc_end37:
	.cfi_endproc

	.globl	__ZNK6cinder3app3App14receivesEventsEv
	.weak_definition	__ZNK6cinder3app3App14receivesEventsEv
	.align	4, 0x90
__ZNK6cinder3app3App14receivesEventsEv: ## @_ZNK6cinder3app3App14receivesEventsEv
	.cfi_startproc
Lfunc_begin38:
	.loc	48 405 0                ## ../../cinder_0.8.4_mac/include/cinder/app/App.h:405:0
## BB#0:
	pushl	%ebp
Ltmp322:
	.cfi_def_cfa_offset 8
Ltmp323:
	.cfi_offset %ebp, -8
	movl	%esp, %ebp
Ltmp324:
	.cfi_def_cfa_register %ebp
	pushl	%eax
	movl	8(%ebp), %eax
	movl	%eax, -4(%ebp)
	movb	$1, %cl
	.loc	48 405 41 prologue_end  ## ../../cinder_0.8.4_mac/include/cinder/app/App.h:405:41
Ltmp325:
	andb	$1, %cl
	movzbl	%cl, %eax
	addl	$4, %esp
	popl	%ebp
	ret
Ltmp326:
Lfunc_end38:
	.cfi_endproc

	.globl	__ZN6cinder3app8AppBasic15prepareSettingsEPNS1_8SettingsE
	.weak_definition	__ZN6cinder3app8AppBasic15prepareSettingsEPNS1_8SettingsE
	.align	4, 0x90
__ZN6cinder3app8AppBasic15prepareSettingsEPNS1_8SettingsE: ## @_ZN6cinder3app8AppBasic15prepareSettingsEPNS1_8SettingsE
	.cfi_startproc
Lfunc_begin39:
	.loc	86 80 0                 ## ../../cinder_0.8.4_mac/include/cinder/app/AppBasic.h:80:0
## BB#0:
	pushl	%ebp
Ltmp329:
	.cfi_def_cfa_offset 8
Ltmp330:
	.cfi_offset %ebp, -8
	movl	%esp, %ebp
Ltmp331:
	.cfi_def_cfa_register %ebp
	subl	$8, %esp
	movl	12(%ebp), %eax
	movl	8(%ebp), %ecx
	movl	%ecx, -4(%ebp)
	movl	%eax, -8(%ebp)
	.loc	86 80 55 prologue_end   ## ../../cinder_0.8.4_mac/include/cinder/app/AppBasic.h:80:55
Ltmp332:
	addl	$8, %esp
	popl	%ebp
	ret
Ltmp333:
Lfunc_end39:
	.cfi_endproc

	.globl	__ZN6cinder3app8AppBasic12touchesBeganENS0_10TouchEventE
	.weak_definition	__ZN6cinder3app8AppBasic12touchesBeganENS0_10TouchEventE
	.align	4, 0x90
__ZN6cinder3app8AppBasic12touchesBeganENS0_10TouchEventE: ## @_ZN6cinder3app8AppBasic12touchesBeganENS0_10TouchEventE
	.cfi_startproc
Lfunc_begin40:
	.loc	86 83 0                 ## ../../cinder_0.8.4_mac/include/cinder/app/AppBasic.h:83:0
## BB#0:
	pushl	%ebp
Ltmp336:
	.cfi_def_cfa_offset 8
Ltmp337:
	.cfi_offset %ebp, -8
	movl	%esp, %ebp
Ltmp338:
	.cfi_def_cfa_register %ebp
	pushl	%eax
	movl	8(%ebp), %eax
	movl	%eax, -4(%ebp)
	.loc	86 83 50 prologue_end   ## ../../cinder_0.8.4_mac/include/cinder/app/AppBasic.h:83:50
Ltmp339:
	addl	$4, %esp
	popl	%ebp
	ret
Ltmp340:
Lfunc_end40:
	.cfi_endproc

	.globl	__ZN6cinder3app8AppBasic12touchesMovedENS0_10TouchEventE
	.weak_definition	__ZN6cinder3app8AppBasic12touchesMovedENS0_10TouchEventE
	.align	4, 0x90
__ZN6cinder3app8AppBasic12touchesMovedENS0_10TouchEventE: ## @_ZN6cinder3app8AppBasic12touchesMovedENS0_10TouchEventE
	.cfi_startproc
Lfunc_begin41:
	.loc	86 85 0                 ## ../../cinder_0.8.4_mac/include/cinder/app/AppBasic.h:85:0
## BB#0:
	pushl	%ebp
Ltmp343:
	.cfi_def_cfa_offset 8
Ltmp344:
	.cfi_offset %ebp, -8
	movl	%esp, %ebp
Ltmp345:
	.cfi_def_cfa_register %ebp
	pushl	%eax
	movl	8(%ebp), %eax
	movl	%eax, -4(%ebp)
	.loc	86 85 50 prologue_end   ## ../../cinder_0.8.4_mac/include/cinder/app/AppBasic.h:85:50
Ltmp346:
	addl	$4, %esp
	popl	%ebp
	ret
Ltmp347:
Lfunc_end41:
	.cfi_endproc

	.globl	__ZN6cinder3app8AppBasic12touchesEndedENS0_10TouchEventE
	.weak_definition	__ZN6cinder3app8AppBasic12touchesEndedENS0_10TouchEventE
	.align	4, 0x90
__ZN6cinder3app8AppBasic12touchesEndedENS0_10TouchEventE: ## @_ZN6cinder3app8AppBasic12touchesEndedENS0_10TouchEventE
	.cfi_startproc
Lfunc_begin42:
	.loc	86 87 0                 ## ../../cinder_0.8.4_mac/include/cinder/app/AppBasic.h:87:0
## BB#0:
	pushl	%ebp
Ltmp350:
	.cfi_def_cfa_offset 8
Ltmp351:
	.cfi_offset %ebp, -8
	movl	%esp, %ebp
Ltmp352:
	.cfi_def_cfa_register %ebp
	pushl	%eax
	movl	8(%ebp), %eax
	movl	%eax, -4(%ebp)
	.loc	86 87 50 prologue_end   ## ../../cinder_0.8.4_mac/include/cinder/app/AppBasic.h:87:50
Ltmp353:
	addl	$4, %esp
	popl	%ebp
	ret
Ltmp354:
Lfunc_end42:
	.cfi_endproc

	.globl	__ZN6cinder7ColorATIfEC2ERKNS_6ColorTIfEEf
	.weak_definition	__ZN6cinder7ColorATIfEC2ERKNS_6ColorTIfEEf
	.align	4, 0x90
__ZN6cinder7ColorATIfEC2ERKNS_6ColorTIfEEf: ## @_ZN6cinder7ColorATIfEC2ERKNS_6ColorTIfEEf
	.cfi_startproc
Lfunc_begin43:
	.loc	61 218 0                ## ../../cinder_0.8.4_mac/include/cinder/Color.h:218:0
## BB#0:
	pushl	%ebp
Ltmp357:
	.cfi_def_cfa_offset 8
Ltmp358:
	.cfi_offset %ebp, -8
	movl	%esp, %ebp
Ltmp359:
	.cfi_def_cfa_register %ebp
	subl	$12, %esp
	movss	16(%ebp), %xmm0
	movl	12(%ebp), %eax
	movl	8(%ebp), %ecx
	movl	%ecx, -4(%ebp)
	movl	%eax, -8(%ebp)
	movss	%xmm0, -12(%ebp)
	movl	-4(%ebp), %eax
	.loc	61 218 2 prologue_end   ## ../../cinder_0.8.4_mac/include/cinder/Color.h:218:2
Ltmp360:
	movl	-8(%ebp), %ecx
	movss	(%ecx), %xmm0
	movss	%xmm0, (%eax)
	movl	-8(%ebp), %ecx
	movss	4(%ecx), %xmm0
	movss	%xmm0, 4(%eax)
	movl	-8(%ebp), %ecx
	movss	8(%ecx), %xmm0
	movss	%xmm0, 8(%eax)
	movss	-12(%ebp), %xmm0
	movss	%xmm0, 12(%eax)
	.loc	61 218 3                ## ../../cinder_0.8.4_mac/include/cinder/Color.h:218:3
Ltmp361:
	addl	$12, %esp
	popl	%ebp
	ret
Ltmp362:
Lfunc_end43:
	.cfi_endproc

	.globl	__ZN6cinder6ColorTIfEC2Efff
	.weak_definition	__ZN6cinder6ColorTIfEC2Efff
	.align	4, 0x90
__ZN6cinder6ColorTIfEC2Efff:            ## @_ZN6cinder6ColorTIfEC2Efff
	.cfi_startproc
Lfunc_begin44:
	.loc	61 49 0                 ## ../../cinder_0.8.4_mac/include/cinder/Color.h:49:0
## BB#0:
	pushl	%ebp
Ltmp365:
	.cfi_def_cfa_offset 8
Ltmp366:
	.cfi_offset %ebp, -8
	movl	%esp, %ebp
Ltmp367:
	.cfi_def_cfa_register %ebp
	subl	$16, %esp
	movss	20(%ebp), %xmm0
	movss	16(%ebp), %xmm1
	movss	12(%ebp), %xmm2
	movl	8(%ebp), %eax
	movl	%eax, -4(%ebp)
	movss	%xmm2, -8(%ebp)
	movss	%xmm1, -12(%ebp)
	movss	%xmm0, -16(%ebp)
	movl	-4(%ebp), %eax
	.loc	61 49 2 prologue_end    ## ../../cinder_0.8.4_mac/include/cinder/Color.h:49:2
Ltmp368:
	movss	-8(%ebp), %xmm0
	movss	%xmm0, (%eax)
	movss	-12(%ebp), %xmm0
	movss	%xmm0, 4(%eax)
	movss	-16(%ebp), %xmm0
	movss	%xmm0, 8(%eax)
	.loc	61 49 3                 ## ../../cinder_0.8.4_mac/include/cinder/Color.h:49:3
Ltmp369:
	addl	$16, %esp
	popl	%ebp
	ret
Ltmp370:
Lfunc_end44:
	.cfi_endproc

	.globl	__ZN16FrickinWebcamAppD2Ev
	.weak_definition	__ZN16FrickinWebcamAppD2Ev
	.align	4, 0x90
__ZN16FrickinWebcamAppD2Ev:             ## @_ZN16FrickinWebcamAppD2Ev
	.cfi_startproc
Lfunc_begin45:
	.loc	1 8 0                   ## /Users/ariggs/Documents/experiments/Cinder/FrickinWebcam/xcode/../src/FrickinWebcamApp.cpp:8:0
## BB#0:
	pushl	%ebp
Ltmp373:
	.cfi_def_cfa_offset 8
Ltmp374:
	.cfi_offset %ebp, -8
	movl	%esp, %ebp
Ltmp375:
	.cfi_def_cfa_register %ebp
	subl	$8, %esp
	movl	8(%ebp), %eax
	movl	%eax, -4(%ebp)
	movl	-4(%ebp), %eax
	.loc	1 8 7 prologue_end      ## /Users/ariggs/Documents/experiments/Cinder/FrickinWebcam/xcode/../src/FrickinWebcamApp.cpp:8:7
Ltmp376:
	movl	%eax, (%esp)
	calll	__ZN6cinder3app8AppBasicD2Ev
	addl	$8, %esp
	popl	%ebp
	ret
Ltmp377:
Lfunc_end45:
	.cfi_endproc

	.globl	__ZN5boost6system12system_errorD2Ev
	.weak_definition	__ZN5boost6system12system_errorD2Ev
	.align	4, 0x90
__ZN5boost6system12system_errorD2Ev:    ## @_ZN5boost6system12system_errorD2Ev
	.cfi_startproc
	.cfi_personality 155, L___gxx_personality_v0$non_lazy_ptr
Leh_func_begin46:
	.cfi_lsda 16, Lexception46
Lfunc_begin46:
	.loc	46 47 0                 ## ../../cinder_0.8.4_mac/boost/boost/system/system_error.hpp:47:0
## BB#0:
	pushl	%ebp
Ltmp383:
	.cfi_def_cfa_offset 8
Ltmp384:
	.cfi_offset %ebp, -8
	movl	%esp, %ebp
Ltmp385:
	.cfi_def_cfa_register %ebp
	subl	$24, %esp
	calll	L46$pb
L46$pb:
	popl	%eax
	movl	8(%ebp), %ecx
	##DEBUG_VALUE: ~system_error:this <- undef
	movl	%ecx, -4(%ebp)
	.loc	46 47 39 prologue_end   ## ../../cinder_0.8.4_mac/boost/boost/system/system_error.hpp:47:39
Ltmp386:
	movl	L__ZTVN5boost6system12system_errorE$non_lazy_ptr-L46$pb(%eax), %eax
	addl	$8, %eax
	movl	%eax, (%ecx)
	.loc	46 47 40                ## ../../cinder_0.8.4_mac/boost/boost/system/system_error.hpp:47:40
Ltmp387:
	movl	%ecx, %eax
	addl	$16, %eax
Ltmp378:
	movl	%esp, %edx
	movl	%eax, (%edx)
	movl	%ecx, -16(%ebp)         ## 4-byte Spill
	calll	__ZNSsD1Ev
Ltmp379:
	jmp	LBB46_1
LBB46_1:
	movl	-16(%ebp), %eax         ## 4-byte Reload
	movl	%eax, (%esp)
	calll	__ZNSt13runtime_errorD2Ev
	addl	$24, %esp
	popl	%ebp
	ret
LBB46_2:
Ltmp380:
	movl	%eax, -8(%ebp)
	movl	%edx, -12(%ebp)
	movl	-16(%ebp), %eax         ## 4-byte Reload
	movl	%eax, (%esp)
	calll	__ZNSt13runtime_errorD2Ev
## BB#3:
	movl	-8(%ebp), %eax
	movl	%eax, (%esp)
	calll	___cxa_call_unexpected
Ltmp388:
Lfunc_end46:
	.cfi_endproc
Leh_func_end46:
	.section	__TEXT,__gcc_except_tab
	.align	2
GCC_except_table46:
Lexception46:
	.byte	255                     ## @LPStart Encoding = omit
	.byte	155                     ## @TType Encoding = indirect pcrel sdata4
	.asciz	 "\240"                 ## @TType base offset
	.byte	3                       ## Call site Encoding = udata4
	.byte	26                      ## Call site table length
Lset49 = Ltmp378-Leh_func_begin46       ## >> Call Site 1 <<
	.long	Lset49
Lset50 = Ltmp379-Ltmp378                ##   Call between Ltmp378 and Ltmp379
	.long	Lset50
Lset51 = Ltmp380-Leh_func_begin46       ##     jumps to Ltmp380
	.long	Lset51
	.byte	3                       ##   On action: 2
Lset52 = Ltmp379-Leh_func_begin46       ## >> Call Site 2 <<
	.long	Lset52
Lset53 = Leh_func_end46-Ltmp379         ##   Call between Ltmp379 and Leh_func_end46
	.long	Lset53
	.long	0                       ##     has no landing pad
	.byte	0                       ##   On action: cleanup
	.byte	0                       ## >> Action Record 1 <<
                                        ##   Cleanup
	.byte	0                       ##   No further actions
	.byte	127                     ## >> Action Record 2 <<
                                        ##   Filter TypeInfo -1
	.byte	125                     ##   Continue to action 1
                                        ## >> Filter TypeInfos <<
	.byte	0
	.align	2

	.section	__TEXT,__textcoal_nt,coalesced,pure_instructions
	.globl	__ZNK5boost6system14error_categoryeqERKS1_
	.weak_definition	__ZNK5boost6system14error_categoryeqERKS1_
	.align	4, 0x90
__ZNK5boost6system14error_categoryeqERKS1_: ## @_ZNK5boost6system14error_categoryeqERKS1_
	.cfi_startproc
Lfunc_begin47:
	.loc	16 195 0                ## ../../cinder_0.8.4_mac/boost/boost/system/error_code.hpp:195:0
## BB#0:
	pushl	%ebp
Ltmp391:
	.cfi_def_cfa_offset 8
Ltmp392:
	.cfi_offset %ebp, -8
	movl	%esp, %ebp
Ltmp393:
	.cfi_def_cfa_register %ebp
	subl	$8, %esp
	movl	12(%ebp), %eax
	movl	8(%ebp), %ecx
	movl	%ecx, -4(%ebp)
	movl	%eax, -8(%ebp)
	movl	-4(%ebp), %eax
	.loc	16 195 59 prologue_end  ## ../../cinder_0.8.4_mac/boost/boost/system/error_code.hpp:195:59
Ltmp394:
	cmpl	-8(%ebp), %eax
	sete	%dl
	andb	$1, %dl
	movzbl	%dl, %eax
	addl	$8, %esp
	popl	%ebp
	ret
Ltmp395:
Lfunc_end47:
	.cfi_endproc

	.globl	__ZNK5boost6system10error_code8categoryEv
	.weak_definition	__ZNK5boost6system10error_code8categoryEv
	.align	4, 0x90
__ZNK5boost6system10error_code8categoryEv: ## @_ZNK5boost6system10error_code8categoryEv
	.cfi_startproc
Lfunc_begin48:
	.loc	16 348 0                ## ../../cinder_0.8.4_mac/boost/boost/system/error_code.hpp:348:0
## BB#0:
	pushl	%ebp
Ltmp398:
	.cfi_def_cfa_offset 8
Ltmp399:
	.cfi_offset %ebp, -8
	movl	%esp, %ebp
Ltmp400:
	.cfi_def_cfa_register %ebp
	pushl	%eax
	movl	8(%ebp), %eax
	movl	%eax, -4(%ebp)
	movl	-4(%ebp), %eax
	.loc	16 348 50 prologue_end  ## ../../cinder_0.8.4_mac/boost/boost/system/error_code.hpp:348:50
Ltmp401:
	movl	4(%eax), %eax
	addl	$4, %esp
	popl	%ebp
	ret
Ltmp402:
Lfunc_end48:
	.cfi_endproc

	.globl	__ZNK5boost6system10error_code5valueEv
	.weak_definition	__ZNK5boost6system10error_code5valueEv
	.align	4, 0x90
__ZNK5boost6system10error_code5valueEv: ## @_ZNK5boost6system10error_code5valueEv
	.cfi_startproc
Lfunc_begin49:
	.loc	16 347 0                ## ../../cinder_0.8.4_mac/boost/boost/system/error_code.hpp:347:0
## BB#0:
	pushl	%ebp
Ltmp405:
	.cfi_def_cfa_offset 8
Ltmp406:
	.cfi_offset %ebp, -8
	movl	%esp, %ebp
Ltmp407:
	.cfi_def_cfa_register %ebp
	pushl	%eax
	movl	8(%ebp), %eax
	movl	%eax, -4(%ebp)
	movl	-4(%ebp), %eax
	.loc	16 347 50 prologue_end  ## ../../cinder_0.8.4_mac/boost/boost/system/error_code.hpp:347:50
Ltmp408:
	movl	(%eax), %eax
	addl	$4, %esp
	popl	%ebp
	ret
Ltmp409:
Lfunc_end49:
	.cfi_endproc

	.globl	__ZN5boost6systemeqERKNS0_15error_conditionES3_
	.weak_definition	__ZN5boost6systemeqERKNS0_15error_conditionES3_
	.align	4, 0x90
__ZN5boost6systemeqERKNS0_15error_conditionES3_: ## @_ZN5boost6systemeqERKNS0_15error_conditionES3_
	.cfi_startproc
Lfunc_begin50:
	.loc	16 283 0                ## ../../cinder_0.8.4_mac/boost/boost/system/error_code.hpp:283:0
## BB#0:
	pushl	%ebp
Ltmp412:
	.cfi_def_cfa_offset 8
Ltmp413:
	.cfi_offset %ebp, -8
	movl	%esp, %ebp
Ltmp414:
	.cfi_def_cfa_register %ebp
	subl	$12, %esp
	movl	12(%ebp), %eax
	movl	8(%ebp), %ecx
	movb	$0, %dl
	movl	%ecx, -4(%ebp)
	movl	%eax, -8(%ebp)
	.loc	16 284 9 prologue_end   ## ../../cinder_0.8.4_mac/boost/boost/system/error_code.hpp:284:9
Ltmp415:
	movl	-4(%ebp), %eax
	movl	4(%eax), %eax
	movl	-8(%ebp), %ecx
	cmpl	4(%ecx), %eax
	movb	%dl, -9(%ebp)           ## 1-byte Spill
	jne	LBB50_2
## BB#1:
	movl	-4(%ebp), %eax
	movl	(%eax), %eax
	movl	-8(%ebp), %ecx
	cmpl	(%ecx), %eax
	sete	%dl
	movb	%dl, -9(%ebp)           ## 1-byte Spill
Ltmp416:
LBB50_2:
	movb	-9(%ebp), %al           ## 1-byte Reload
	.loc	16 285 7                ## ../../cinder_0.8.4_mac/boost/boost/system/error_code.hpp:285:7
	andb	$1, %al
	movzbl	%al, %eax
	addl	$12, %esp
	popl	%ebp
	ret
Ltmp417:
Lfunc_end50:
	.cfi_endproc

	.globl	__ZN5boost6system14error_categoryD2Ev
	.weak_definition	__ZN5boost6system14error_categoryD2Ev
	.align	4, 0x90
__ZN5boost6system14error_categoryD2Ev:  ## @_ZN5boost6system14error_categoryD2Ev
	.cfi_startproc
Lfunc_begin51:
	.loc	16 185 0                ## ../../cinder_0.8.4_mac/boost/boost/system/error_code.hpp:185:0
## BB#0:
	pushl	%ebp
Ltmp420:
	.cfi_def_cfa_offset 8
Ltmp421:
	.cfi_offset %ebp, -8
	movl	%esp, %ebp
Ltmp422:
	.cfi_def_cfa_register %ebp
	subl	$8, %esp
	movl	8(%ebp), %eax
	movl	%eax, -4(%ebp)
	movl	-4(%ebp), %eax
	.loc	16 185 33 prologue_end  ## ../../cinder_0.8.4_mac/boost/boost/system/error_code.hpp:185:33
Ltmp423:
	movl	%eax, (%esp)
	calll	__ZN5boost12noncopyable_11noncopyableD2Ev
	addl	$8, %esp
	popl	%ebp
	ret
Ltmp424:
Lfunc_end51:
	.cfi_endproc

	.globl	__ZN5boost12noncopyable_11noncopyableD2Ev
	.weak_definition	__ZN5boost12noncopyable_11noncopyableD2Ev
	.align	4, 0x90
__ZN5boost12noncopyable_11noncopyableD2Ev: ## @_ZN5boost12noncopyable_11noncopyableD2Ev
	.cfi_startproc
Lfunc_begin52:
	.loc	15 25 0                 ## ../../cinder_0.8.4_mac/boost/boost/noncopyable.hpp:25:0
## BB#0:
	pushl	%ebp
Ltmp427:
	.cfi_def_cfa_offset 8
Ltmp428:
	.cfi_offset %ebp, -8
	movl	%esp, %ebp
Ltmp429:
	.cfi_def_cfa_register %ebp
	pushl	%eax
	movl	8(%ebp), %eax
	movl	%eax, -4(%ebp)
	.loc	15 25 23 prologue_end   ## ../../cinder_0.8.4_mac/boost/boost/noncopyable.hpp:25:23
Ltmp430:
	addl	$4, %esp
	popl	%ebp
	ret
Ltmp431:
Lfunc_end52:
	.cfi_endproc

	.globl	__ZN16FrickinWebcamAppC2Ev
	.weak_definition	__ZN16FrickinWebcamAppC2Ev
	.align	4, 0x90
__ZN16FrickinWebcamAppC2Ev:             ## @_ZN16FrickinWebcamAppC2Ev
	.cfi_startproc
Lfunc_begin53:
	.loc	1 8 0                   ## /Users/ariggs/Documents/experiments/Cinder/FrickinWebcam/xcode/../src/FrickinWebcamApp.cpp:8:0
## BB#0:
	pushl	%ebp
Ltmp434:
	.cfi_def_cfa_offset 8
Ltmp435:
	.cfi_offset %ebp, -8
	movl	%esp, %ebp
Ltmp436:
	.cfi_def_cfa_register %ebp
	subl	$24, %esp
	calll	L53$pb
L53$pb:
	popl	%eax
	movl	8(%ebp), %ecx
	movl	%ecx, -4(%ebp)
	movl	-4(%ebp), %ecx
	.loc	1 8 7 prologue_end      ## /Users/ariggs/Documents/experiments/Cinder/FrickinWebcam/xcode/../src/FrickinWebcamApp.cpp:8:7
Ltmp437:
	movl	%ecx, %edx
	movl	%edx, (%esp)
	movl	%eax, -8(%ebp)          ## 4-byte Spill
	movl	%ecx, -12(%ebp)         ## 4-byte Spill
	calll	__ZN6cinder3app8AppBasicC2Ev
	movl	-8(%ebp), %eax          ## 4-byte Reload
	leal	__ZTV16FrickinWebcamApp-L53$pb(%eax), %ecx
	addl	$8, %ecx
	movl	-12(%ebp), %edx         ## 4-byte Reload
	movl	%ecx, (%edx)
	.loc	1 8 7                   ## /Users/ariggs/Documents/experiments/Cinder/FrickinWebcam/xcode/../src/FrickinWebcamApp.cpp:8:7
Ltmp438:
	addl	$24, %esp
	popl	%ebp
	ret
Ltmp439:
Lfunc_end53:
	.cfi_endproc

	.globl	__ZN5boost6system15error_conditionC2EiRKNS0_14error_categoryE
	.weak_definition	__ZN5boost6system15error_conditionC2EiRKNS0_14error_categoryE
	.align	4, 0x90
__ZN5boost6system15error_conditionC2EiRKNS0_14error_categoryE: ## @_ZN5boost6system15error_conditionC2EiRKNS0_14error_categoryE
	.cfi_startproc
Lfunc_begin54:
	.loc	16 229 0                ## ../../cinder_0.8.4_mac/boost/boost/system/error_code.hpp:229:0
## BB#0:
	pushl	%ebp
Ltmp442:
	.cfi_def_cfa_offset 8
Ltmp443:
	.cfi_offset %ebp, -8
	movl	%esp, %ebp
Ltmp444:
	.cfi_def_cfa_register %ebp
	subl	$12, %esp
	movl	16(%ebp), %eax
	movl	12(%ebp), %ecx
	movl	8(%ebp), %edx
	movl	%edx, -4(%ebp)
	movl	%ecx, -8(%ebp)
	movl	%eax, -12(%ebp)
	movl	-4(%ebp), %eax
	.loc	16 229 88 prologue_end  ## ../../cinder_0.8.4_mac/boost/boost/system/error_code.hpp:229:88
Ltmp445:
	movl	-8(%ebp), %ecx
	movl	%ecx, (%eax)
	movl	-12(%ebp), %ecx
	movl	%ecx, 4(%eax)
	.loc	16 229 89               ## ../../cinder_0.8.4_mac/boost/boost/system/error_code.hpp:229:89
Ltmp446:
	addl	$12, %esp
	popl	%ebp
	ret
Ltmp447:
Lfunc_end54:
	.cfi_endproc

	.section	__TEXT,__StaticInit,regular,pure_instructions
	.align	4, 0x90
__GLOBAL__I_a:                          ## @_GLOBAL__I_a
	.cfi_startproc
## BB#0:
	pushl	%ebp
Ltmp450:
	.cfi_def_cfa_offset 8
Ltmp451:
	.cfi_offset %ebp, -8
	movl	%esp, %ebp
Ltmp452:
	.cfi_def_cfa_register %ebp
	subl	$8, %esp
	calll	___cxx_global_var_init
	calll	___cxx_global_var_init1
	calll	___cxx_global_var_init2
	calll	___cxx_global_var_init3
	addl	$8, %esp
	popl	%ebp
	ret
	.cfi_endproc

.zerofill __DATA,__bss,__ZStL8__ioinit,1,0 ## @_ZStL8__ioinit
.zerofill __DATA,__bss,__ZN5boost6systemL14posix_categoryE,4,2 ## @_ZN5boost6systemL14posix_categoryE
.zerofill __DATA,__bss,__ZN5boost6systemL10errno_ecatE,4,2 ## @_ZN5boost6systemL10errno_ecatE
.zerofill __DATA,__bss,__ZN5boost6systemL11native_ecatE,4,2 ## @_ZN5boost6systemL11native_ecatE
	.section	__TEXT,__cstring,cstring_literals
L_.str:                                 ## @.str
	.asciz	 ": "

.zerofill __DATA,__bss,__ZNSt3tr112_GLOBAL__N_16ignoreE,1,0 ## @_ZNSt3tr112_GLOBAL__N_16ignoreE
.zerofill __DATA,__bss,__ZNSt3tr112placeholders12_GLOBAL__N_12_1E,1,0 ## @_ZNSt3tr112placeholders12_GLOBAL__N_12_1E
.zerofill __DATA,__bss,__ZNSt3tr112placeholders12_GLOBAL__N_12_2E,1,0 ## @_ZNSt3tr112placeholders12_GLOBAL__N_12_2E
.zerofill __DATA,__bss,__ZNSt3tr112placeholders12_GLOBAL__N_12_3E,1,0 ## @_ZNSt3tr112placeholders12_GLOBAL__N_12_3E
.zerofill __DATA,__bss,__ZNSt3tr112placeholders12_GLOBAL__N_12_4E,1,0 ## @_ZNSt3tr112placeholders12_GLOBAL__N_12_4E
.zerofill __DATA,__bss,__ZNSt3tr112placeholders12_GLOBAL__N_12_5E,1,0 ## @_ZNSt3tr112placeholders12_GLOBAL__N_12_5E
.zerofill __DATA,__bss,__ZNSt3tr112placeholders12_GLOBAL__N_12_6E,1,0 ## @_ZNSt3tr112placeholders12_GLOBAL__N_12_6E
.zerofill __DATA,__bss,__ZNSt3tr112placeholders12_GLOBAL__N_12_7E,1,0 ## @_ZNSt3tr112placeholders12_GLOBAL__N_12_7E
.zerofill __DATA,__bss,__ZNSt3tr112placeholders12_GLOBAL__N_12_8E,1,0 ## @_ZNSt3tr112placeholders12_GLOBAL__N_12_8E
.zerofill __DATA,__bss,__ZNSt3tr112placeholders12_GLOBAL__N_12_9E,1,0 ## @_ZNSt3tr112placeholders12_GLOBAL__N_12_9E
.zerofill __DATA,__bss,__ZNSt3tr112placeholders12_GLOBAL__N_13_10E,1,0 ## @_ZNSt3tr112placeholders12_GLOBAL__N_13_10E
L_.str4:                                ## @.str4
	.asciz	 "FrickinWebcamApp"

	.section	__DATA,__datacoal_nt,coalesced
	.globl	__ZTVN5boost6system14error_categoryE ## @_ZTVN5boost6system14error_categoryE
	.weak_definition	__ZTVN5boost6system14error_categoryE
	.align	4
__ZTVN5boost6system14error_categoryE:
	.long	0
	.long	__ZTIN5boost6system14error_categoryE
	.long	__ZN5boost6system14error_categoryD1Ev
	.long	__ZN5boost6system14error_categoryD0Ev
	.long	___cxa_pure_virtual
	.long	___cxa_pure_virtual
	.long	__ZNK5boost6system14error_category23default_error_conditionEi
	.long	__ZNK5boost6system14error_category10equivalentEiRKNS0_15error_conditionE
	.long	__ZNK5boost6system14error_category10equivalentERKNS0_10error_codeEi

	.section	__TEXT,__const_coal,coalesced
	.globl	__ZTSN5boost6system14error_categoryE ## @_ZTSN5boost6system14error_categoryE
	.weak_definition	__ZTSN5boost6system14error_categoryE
	.align	4
__ZTSN5boost6system14error_categoryE:
	.asciz	 "N5boost6system14error_categoryE"

	.globl	__ZTSN5boost12noncopyable_11noncopyableE ## @_ZTSN5boost12noncopyable_11noncopyableE
	.weak_definition	__ZTSN5boost12noncopyable_11noncopyableE
	.align	4
__ZTSN5boost12noncopyable_11noncopyableE:
	.asciz	 "N5boost12noncopyable_11noncopyableE"

	.section	__DATA,__datacoal_nt,coalesced
	.globl	__ZTIN5boost12noncopyable_11noncopyableE ## @_ZTIN5boost12noncopyable_11noncopyableE
	.weak_definition	__ZTIN5boost12noncopyable_11noncopyableE
	.align	3
__ZTIN5boost12noncopyable_11noncopyableE:
	.long	__ZTVN10__cxxabiv117__class_type_infoE+8
	.long	__ZTSN5boost12noncopyable_11noncopyableE

	.globl	__ZTIN5boost6system14error_categoryE ## @_ZTIN5boost6system14error_categoryE
	.weak_definition	__ZTIN5boost6system14error_categoryE
	.align	3
__ZTIN5boost6system14error_categoryE:
	.long	__ZTVN10__cxxabiv120__si_class_type_infoE+8
	.long	__ZTSN5boost6system14error_categoryE
	.long	__ZTIN5boost12noncopyable_11noncopyableE

	.globl	__ZTVN5boost6system12system_errorE ## @_ZTVN5boost6system12system_errorE
	.weak_definition	__ZTVN5boost6system12system_errorE
	.align	4
__ZTVN5boost6system12system_errorE:
	.long	0
	.long	__ZTIN5boost6system12system_errorE
	.long	__ZN5boost6system12system_errorD1Ev
	.long	__ZN5boost6system12system_errorD0Ev
	.long	__ZNK5boost6system12system_error4whatEv

	.section	__TEXT,__const_coal,coalesced
	.globl	__ZTSN5boost6system12system_errorE ## @_ZTSN5boost6system12system_errorE
	.weak_definition	__ZTSN5boost6system12system_errorE
	.align	4
__ZTSN5boost6system12system_errorE:
	.asciz	 "N5boost6system12system_errorE"

	.section	__DATA,__datacoal_nt,coalesced
	.globl	__ZTIN5boost6system12system_errorE ## @_ZTIN5boost6system12system_errorE
	.weak_definition	__ZTIN5boost6system12system_errorE
	.align	3
__ZTIN5boost6system12system_errorE:
	.long	__ZTVN10__cxxabiv120__si_class_type_infoE+8
	.long	__ZTSN5boost6system12system_errorE
	.long	__ZTISt13runtime_error

	.section	__DATA,__const
	.globl	__ZTV16FrickinWebcamApp ## @_ZTV16FrickinWebcamApp
	.align	4
__ZTV16FrickinWebcamApp:
	.long	0
	.long	__ZTI16FrickinWebcamApp
	.long	__ZN16FrickinWebcamAppD1Ev
	.long	__ZN16FrickinWebcamAppD0Ev
	.long	__ZN16FrickinWebcamApp5setupEv
	.long	__ZN6cinder3app3App8shutdownEv
	.long	__ZN16FrickinWebcamApp6updateEv
	.long	__ZN16FrickinWebcamApp4drawEv
	.long	__ZN16FrickinWebcamApp9mouseDownEN6cinder3app10MouseEventE
	.long	__ZN6cinder3app3App7mouseUpENS0_10MouseEventE
	.long	__ZN6cinder3app3App10mouseWheelENS0_10MouseEventE
	.long	__ZN6cinder3app3App9mouseMoveENS0_10MouseEventE
	.long	__ZN6cinder3app3App9mouseDragENS0_10MouseEventE
	.long	__ZN6cinder3app3App7keyDownENS0_8KeyEventE
	.long	__ZN6cinder3app3App5keyUpENS0_8KeyEventE
	.long	__ZN6cinder3app3App6resizeENS0_11ResizeEventE
	.long	__ZN6cinder3app3App8fileDropENS0_13FileDropEventE
	.long	__ZN6cinder3app8AppBasic4quitEv
	.long	__ZNK6cinder3app8AppBasic11getSettingsEv
	.long	__ZNK6cinder3app8AppBasic14getWindowWidthEv
	.long	__ZN6cinder3app8AppBasic14setWindowWidthEi
	.long	__ZNK6cinder3app8AppBasic15getWindowHeightEv
	.long	__ZN6cinder3app8AppBasic15setWindowHeightEi
	.long	__ZN6cinder3app8AppBasic13setWindowSizeEii
	.long	__ZNK6cinder3app8AppBasic12getWindowPosEv
	.long	__ZN6cinder3app8AppBasic12setWindowPosERKNS_4Vec2IiEE
	.long	__ZNK6cinder3app8AppBasic12getFrameRateEv
	.long	__ZN6cinder3app8AppBasic12setFrameRateEf
	.long	__ZNK6cinder3app8AppBasic12isFullScreenEv
	.long	__ZN6cinder3app8AppBasic13setFullScreenEb
	.long	__ZNK6cinder3app8AppBasic12isBorderlessEv
	.long	__ZN6cinder3app8AppBasic13setBorderlessEb
	.long	__ZNK6cinder3app8AppBasic13isAlwaysOnTopEv
	.long	__ZN6cinder3app8AppBasic14setAlwaysOnTopEb
	.long	__ZN6cinder3app8AppBasic10getAppPathEv
	.long	__ZN6cinder3app3App14privateSetup__Ev
	.long	__ZN6cinder3app8AppBasic15privateResize__ERKNS0_11ResizeEventE
	.long	__ZN6cinder3app3App15privateUpdate__Ev
	.long	__ZN6cinder3app3App13privateDraw__Ev
	.long	__ZN6cinder3app3App17privateShutdown__Ev
	.long	__ZNK6cinder3app3App14receivesEventsEv
	.long	__ZN6cinder3app8AppBasic6launchEPKciPKPc
	.long	__ZN6cinder3app8AppBasic15prepareSettingsEPNS1_8SettingsE
	.long	__ZN6cinder3app8AppBasic12touchesBeganENS0_10TouchEventE
	.long	__ZN6cinder3app8AppBasic12touchesMovedENS0_10TouchEventE
	.long	__ZN6cinder3app8AppBasic12touchesEndedENS0_10TouchEventE

	.section	__TEXT,__const
	.globl	__ZTS16FrickinWebcamApp ## @_ZTS16FrickinWebcamApp
	.align	4
__ZTS16FrickinWebcamApp:
	.asciz	 "16FrickinWebcamApp"

	.section	__DATA,__const
	.globl	__ZTI16FrickinWebcamApp ## @_ZTI16FrickinWebcamApp
	.align	3
__ZTI16FrickinWebcamApp:
	.long	__ZTVN10__cxxabiv120__si_class_type_infoE+8
	.long	__ZTS16FrickinWebcamApp
	.long	__ZTIN6cinder3app8AppBasicE

	.section	__DATA,__mod_init_func,mod_init_funcs
	.align	2
	.long	__GLOBAL__I_a
	.section	__TEXT,__eh_frame,coalesced,no_toc+strip_static_syms+live_support
	.section	__TEXT,__text,regular,pure_instructions
Ltext_end:
	.section	__DATA,__data
Ldata_end:
	.section	__TEXT,__text,regular,pure_instructions
Lsection_end1: